((lp1
(lp2
I17
aI4
aI7
aI1
aI2
aI1
aa(lp3
I1
aI1
aI1
aa(lp4
I37
aI1
aa(lp5
I493
aI697
aI49
aa(lp6
I1
aI296
aI33
aI1
aa(lp7
I1
aI1
aa(lp8
I296
aI33
aI1
aI13
aa(lp9
I799
aI408
aI32
aI1
aI1
aI1
aI1
aI6
aa(lp10
I20
aI1
aI1
aI1
aI47
aI18
aa(lp11
I1
aI1
aI1
aa(lp12
I1
aI3
aa(lp13
I125
aI1
aa(lp14
I296
aI33
aI25
aI43
aI13
aa(lp15
I19
aI150
aI95
aI1
aI8
aa(lp16
I15
aI697
aI18
aI298
aI234
aI27
aI1
aI305
aa(lp17
I85
aI151
aI1
aI10
aa(lp18
I1
aa(lp19
I1
aa(lp20
I1
aI227
aI1
aI579
aI6
aI1
aI257
aI1
aa(lp21
I15
aI1
aI579
aI10
aa(lp22
I44
aI1
aI100
aI5
aI437
aa(lp23
I524
aI143
aI1
aI18
aa(lp24
I133
aa(lp25
I194
aI1
aI246
aI2
aI524
aI7
aI1
aa(lp26
I333
aI572
aa(lp27
I524
aI15
aI1
aI11
aa(lp28
I1
aI1
aI143
aI1
aI1
aI143
aI1
aa(lp29
I7
aI1
aI2
aI1
aI41
aI57
aI1
aa(lp30
I39
aI1
aI6
aI22
aa(lp31
I1
aI1
aI25
aI43
aI95
aI1
aI8
aa(lp32
I33
aI2
aI8
aI244
aI32
aI95
aI26
aI417
aa(lp33
I15
aI697
aI1
aI18
aa(lp34
I585
aI7
aI333
aI1
aI2
aI49
aa(lp35
I33
aI151
aI521
aa(lp36
I12
aI1
aI224
aI560
aI28
aI21
aI1
aa(lp37
I33
aI1
aI19
aI1
aI1
aI47
aI1
aI18
aa(lp38
I1
aI1
aI511
aa(lp39
I1
aI393
aI90
aI353
aI3
aa(lp40
I483
aa(lp41
I1
aI107
aI1
aI107
aI1
aa(lp42
I1
aI1
aa(lp43
I1
aa(lp44
I1
aa(lp45
I17
aI1
aI1
aa(lp46
I1
aI1
aa(lp47
I1
aa(lp48
I1
aI717
aI1
aa(lp49
I162
aI5
aI23
aI16
aI1
aa(lp50
I1
aa(lp51
I1
aa(lp52
I1
aI1
aI1
aa(lp53
I566
aI1
aa(lp54
I1
aI677
aa(lp55
I1
aa(lp56
I30
aI14
aI168
aa(lp57
I487
aI46
aI1
aa(lp58
I1
aI1
aa(lp59
I160
aI79
aI1
aI391
aa(lp60
I833
aa(lp61
I1
aI1
aI1
aa(lp62
I1
aI108
aI5
aI1
aI2
aI1
aa(lp63
I1
aI1
aa(lp64
I1
aI1
aa(lp65
I785
aI1
aI1
aa(lp66
I47
aI241
aa(lp67
I1
aa(lp68
I1
aI1
aI1
aa(lp69
I1
aa(lp70
I1
aI1
aa(lp71
I1
aI876
aa(lp72
I37
aI1
aI1
aa(lp73
I1
aa(lp74
I1
aI1
aI1
aa(lp75
I1
aI644
aa(lp76
I1
aI1
aa(lp77
I1
aI717
aI1
aa(lp78
I1
aI1
aa(lp79
I1
aI1
aa(lp80
I1
aa(lp81
I1
aa(lp82
I1
aa(lp83
I1
aI1
aa(lp84
I1
aa(lp85
I1
aa(lp86
I1
aa(lp87
I5
aI388
aI1
aI644
aa(lp88
I1
aa(lp89
I833
aa(lp90
I67
aI160
aI2
aI268
aI4
aI169
aI5
aI1
aI3
aI1
aa(lp91
I75
aI1
aI1
aI1
aa(lp92
I274
aI36
aI474
aI508
aI3
aa(lp93
I81
aI1
aa(lp94
I799
aI153
aI46
aI2
aI391
aa(lp95
I1
aI2
aI1
aa(lp96
I1
aI1
aa(lp97
I1
aI120
aI1
aI33
aI1
aa(lp98
I1
aa(lp99
I1
aa(lp100
I1
aa(lp101
I1
aI717
aI1
aa(lp102
I1
aI1
aa(lp103
I1
aa(lp104
I1
aI2
aI1
aa(lp105
I1
aI1
aI1
aa(lp106
I1
aI364
aI95
aa(lp107
I1
aa(lp108
I1
aa(lp109
I1
aI566
aI1
aI1
aa(lp110
I1
aI20
aI1
aI1
aa(lp111
I160
aI79
aI1
aI391
aa(lp112
I833
aa(lp113
I1
aa(lp114
I1
aa(lp115
I1
aa(lp116
I1
aI2
aI1
aa(lp117
I1
aI1
aI1
aa(lp118
I1
aa(lp119
I501
aa(lp120
I347
aa(lp121
I427
aI1
aa(lp122
I1
aI46
aI487
aI46
aI1
aa(lp123
I46
aI452
aI24
aI668
aI1
aa(lp124
I1
aa(lp125
I30
aa(lp126
I1
aI7
aI454
aI1
aa(lp127
I30
aI26
aI860
aI1
aI1
aa(lp128
I1
aI1
aa(lp129
I1
aI644
aa(lp130
I1
aI80
aa(lp131
I4
aI2
aI209
aI339
aI318
aI82
aI24
aI1
aI7
aI8
aa(lp132
I1
aI1
aa(lp133
I55
aI1
aI107
aI1
aI107
aI1
aI165
aI1
aI1
aa(lp134
I5
aI72
aI216
aI1
aI1
aa(lp135
I4
aI48
aI650
aI3
aa(lp136
I1
aI70
aI1
aI159
aI1
aI331
aI9
aa(lp137
I502
aI1
aI4
aI39
aI1
aa(lp138
I1
aI53
aa(lp139
I213
aI27
aI158
aI250
aI3
aa(lp140
I240
aa(lp141
I22
aI1
aI213
aI5
aI3
aa(lp142
I20
aI1
aI2
aI1
aI16
aI1
aI6
aa(lp143
I70
aI81
aI2
aI29
aI89
aI551
aI156
aI9
aI2
aI8
aa(lp144
I20
aI1
aI2
aI1
aI16
aI1
aI6
aa(lp145
I73
aI1
aI2
aI29
aI1
aI386
aI1
aI283
aa(lp146
I1
aI1
aI5
aI716
aI4
aI4
aI12
aI1
aa(lp147
I1
aI5
aI1
aI716
aI4
aI4
aI12
aI207
aI1
aa(lp148
I35
aI2
aI9
aa(lp149
I479
aa(lp150
I401
aI5
aI578
aI47
aI1
aI21
aa(lp151
I281
aI1
aa(lp152
I1
aI1
aa(lp153
I1
aI2
aI1
aI1
aa(lp154
I1
aa(lp155
I488
aI3
aI1
aI2
aI17
aa(lp156
I1
aI1
aI2
aI30
aI1
aa(lp157
I1
aa(lp158
I1
aI1
aI1
aa(lp159
I1
aI2
aI28
aI493
aa(lp160
I1
aI2
aa(lp161
I267
aI1
aI104
aI1
aI18
aa(lp162
I281
aa(lp163
I281
aI58
aI1
aa(lp164
I45
aI5
aI20
aI23
aI470
aI13
aa(lp165
I1
aI5
aI13
aa(lp166
I384
aa(lp167
I221
aI3
aI12
aI223
aI1
aa(lp168
I219
aI35
aI1
aI414
aa(lp169
I1
aI62
aI4
aI12
aI1
aI245
aa(lp170
I384
aa(lp171
I4
aI405
aI617
aI53
aI1
aI2
aI29
aa(lp172
I85
aI1
aI77
aI2
aI1
aI39
aI550
aI2
aa(lp173
I1
aI501
aa(lp174
I32
aI130
aI104
aI1
aI1
aI6
aa(lp175
I1
aI1
aI1
aI534
aI283
aI2
aI1
aa(lp176
I684
aI749
aI838
aI1
aI6
aa(lp177
I44
aa(lp178
I31
aI18
aa(lp179
I684
aI749
aI7
aI1
aI18
aa(lp180
I19
aI12
aI254
aI124
aI684
aI749
aI3
aI96
aa(lp181
I1
aI27
aI7
aI1
aI18
aa(lp182
I62
aa(lp183
I32
aI410
aI1
aI119
aI1
aI82
aI92
aI1
aI1
aa(lp184
I586
aa(lp185
I1
aa(lp186
I1
aI1
aI220
aI220
aa(lp187
I154
aI339
aa(lp188
I81
aI27
aI751
aI62
aa(lp189
I62
aI83
aa(lp190
I128
aI519
aI283
aI2
aI1
aa(lp191
I9
aI2
aI1
aa(lp192
I552
aI226
aa(lp193
I62
aa(lp194
I4
aI183
aI3
aI284
aI253
aI1
aI3
aa(lp195
I87
aI1
aI1
aI38
aI1
aI159
aa(lp196
I12
aI395
aI48
aI284
aa(lp197
I1
aI1
aI61
aI60
aI707
aI64
aI61
aa(lp198
I180
aI1
aI180
aI367
aa(lp199
I50
aI367
aa(lp200
I81
aI431
aI1
aI245
aa(lp201
I32
aI15
aI1
aI2
aI802
aa(lp202
I830
aI1
aI642
aI32
aI1
aI1
aI2
aI29
aa(lp203
I594
aI642
aI2
aI30
aI54
aI5
aI62
aa(lp204
I59
aa(lp205
I17
aI1
aa(lp206
I15
aI1
aI2
aI1
aa(lp207
I62
aa(lp208
I5
aI1
aI3
aI10
aa(lp209
I62
aI1
aa(lp210
I1
aI2
aI1
aa(lp211
I296
aI1
aI260
aI6
aa(lp212
I1
aI31
aI488
aI1
aI1
aa(lp213
I201
aI472
aI12
aI1
aI1
aI1
aa(lp214
I62
aa(lp215
I1
aI6
aI1
aa(lp216
I4
aI34
aI62
aI2
aa(lp217
I1
aI1
aa(lp218
I442
aI245
aI62
aa(lp219
I1
aa(lp220
I1
aI665
aI3
aI333
aI1
aa(lp221
I9
aI2
aI1
aI81
aa(lp222
I29
aI1
aI142
aI1
aI12
aI460
aI1
aa(lp223
I384
aa(lp224
I1
aI62
aa(lp225
I1
aI2
aI1
aa(lp226
I561
aI613
aI3
aa(lp227
I134
aI16
aI9
aI367
aI9
aI1
aa(lp228
I1
aI1
aI367
aa(lp229
I168
aI168
aI62
aI373
aa(lp230
I44
aI1
aI9
aa(lp231
I1
aI1
aI1
aI2
aI1
aa(lp232
I1
aI1
aI1
aI1
aa(lp233
I62
aI472
aa(lp234
I1
aI1
aI1
aI1
aa(lp235
I1
aI7
aI1
aI165
aa(lp236
I1
aa(lp237
I1
aa(lp238
I1
aa(lp239
I1
aa(lp240
I86
aI79
aI306
aa(lp241
I808
aI454
aI1
aI2
aI24
aI1
aI2
aI154
aa(lp242
I111
aI93
aI35
aI2
aI4
aI16
aI48
aI25
aI1
aI1
aa(lp243
I431
aI5
aI34
aI1
aI1
aI1
aI2
aI1
aa(lp244
I273
aI86
aI604
aa(lp245
I1
aI1
aI1
aI286
aI1
aI105
aI1
aa(lp246
I147
aI1
aI1
aI1
aI1
aa(lp247
I5
aI96
aI7
aI1
aI1
aI69
aI593
aa(lp248
I57
aI28
aI771
aI18
aa(lp249
I771
aI755
aa(lp250
I1
aI18
aa(lp251
I1
aI299
aI682
aI2
aI7
aI5
aI11
aa(lp252
I7
aI2
aI7
aI2
aa(lp253
I739
aI26
aI842
aa(lp254
I137
aI47
aI1
aI3
aI6
aa(lp255
I4
aI57
aI2
aI1
aI31
aI1
aI623
aa(lp256
I6
aI104
aI1
aI3
aI1
aI43
aa(lp257
I86
aI1
aI1
aI2
aI1
aI208
aa(lp258
I1
aI287
aI18
aa(lp259
I1
aI360
aI2
aI568
aI1
aI104
aI1
aa(lp260
I426
aI129
aa(lp261
I1
aI1
aI15
aI80
aI18
aI7
aI1
aI8
aa(lp262
I523
aI196
aI1
aI587
aI1
aI11
aa(lp263
I1
aI13
aa(lp264
I385
aa(lp265
I38
aI66
aI1
aI6
aI5
aI1
aI3
aa(lp266
I1
aI8
aI223
aI142
aI1
aI3
aa(lp267
I56
aI2
aa(lp268
I1
aI31
aI81
aI1
aI18
aa(lp269
I368
aI31
aI1
aI14
aI140
aI419
aa(lp270
I1
aa(lp271
I1
aI1
aI222
aI1
aa(lp272
I4
aI2
aI1
aI100
aI5
aI35
aI2
aI1
aa(lp273
I1
aI1
aI866
aI270
aa(lp274
I645
aI35
aI1
aa(lp275
I1
aI62
aI6
aa(lp276
I1
aI4
aI72
aI491
aI229
aI4
aI2
aI1
aI3
aa(lp277
I179
aI4
aI41
aI48
aI683
aa(lp278
I1
aI1
aa(lp279
I62
aa(lp280
I1
aI95
aI3
aI1
aI1
aI3
aI1
aI14
aI1
aa(lp281
I62
aa(lp282
I1
aa(lp283
I1
aI105
aI1
aI1
aI2
aI492
aa(lp284
I1
aI1
aI300
aI443
aI9
aI403
aI38
aa(lp285
I587
aI1
aI30
aI558
aI40
aa(lp286
I11
aI558
aI411
aI55
aa(lp287
I6
aI179
aI369
aI587
aI1
aa(lp288
I165
aI105
aI165
aa(lp289
I165
aI3
aI26
aI142
aI165
aa(lp290
I435
aI139
aI1
aa(lp291
I9
aI2
aI34
aI1
aI54
aI273
aI2
aa(lp292
I1
aI337
aI35
aI1
aI51
aa(lp293
I328
aI159
aI29
aI804
aI15
aI753
aI159
aI1
aa(lp294
I328
aI159
aI29
aI804
aI15
aI753
aI159
aI1
aa(lp295
I1
aa(lp296
I1
aI1
aI12
aI24
aI829
aa(lp297
I1
aI1
aa(lp298
I19
aI1
aI13
aa(lp299
I48
aI1
aI8
aa(lp300
I1
aI299
aI682
aI8
aa(lp301
I37
aI682
aI6
aa(lp302
I43
aI289
aI1
aI8
aa(lp303
I1
aa(lp304
I210
aI233
aI498
aI2
aI1
aa(lp305
I162
aI1
aI498
aI1
aa(lp306
I1
aI3
aI5
aI28
aI1
aI18
aa(lp307
I195
aI49
aI144
aa(lp308
I1
aI79
aI216
aa(lp309
I1
aI47
aI289
aI52
aI137
aa(lp310
I844
aI1
aI1
aI47
aa(lp311
I10
aI198
aI6
aa(lp312
I279
aI1
aI99
aI47
aI1
aI85
aI25
aI5
aI1
aI10
aa(lp313
I73
aI1
aI3
aa(lp314
I201
aI192
aI1
aa(lp315
I28
aI75
aI610
aI151
aI1
aI1
aI38
aa(lp316
I55
aa(lp317
I87
aI10
aI87
aI10
aI87
aI10
aa(lp318
I44
aI27
aI401
aI82
aI9
aa(lp319
I48
aI25
aI1
aa(lp320
I30
aI76
aI5
aI148
aI799
aa(lp321
I1
aa(lp322
I764
aI19
aI32
aI1
aI333
aI188
aI1
aI6
aa(lp323
I649
aI1
aI1
aI25
aI13
aa(lp324
I767
aI49
aI453
aI30
aI6
aI17
aa(lp325
I767
aI49
aI453
aI30
aI6
aI17
aa(lp326
I1
aa(lp327
I1
aa(lp328
I4
aI52
aI194
aI7
aI80
aI763
aI1
aI1
aa(lp329
I1
aI6
aI1
aI6
aa(lp330
I1
aI20
aI1
aI1
aI3
aa(lp331
I27
aI7
aI1
aI2
aI9
aI10
aa(lp332
I418
aI163
aI348
aI1
aa(lp333
I1
aI3
aI117
aI188
aI1
aa(lp334
I5
aI1
aI1
aI16
aI1
aI94
aa(lp335
I36
aI175
aI670
aa(lp336
I1
aI1
aI26
aI1
aI319
aI463
aI3
aI108
aa(lp337
I4
aI90
aI716
aI46
aI3
aI38
aI12
aa(lp338
I4
aI1
aI1
aI37
aI1
aa(lp339
I37
aI1
aI101
aI1
aa(lp340
I4
aI1
aa(lp341
I97
aa(lp342
I1
aa(lp343
I1
aI27
aI521
aI189
aI574
aI24
aI1
aa(lp344
I1
aa(lp345
I22
aI526
aI101
aI431
aI53
aI1
aa(lp346
I1
aI2
aa(lp347
I1
aa(lp348
I346
aI16
aI32
aI348
aa(lp349
I493
aI23
aI1
aI558
aa(lp350
I1
aI14
aI216
aI3
aI26
aI1
aa(lp351
I1
aI2
aI1
aa(lp352
I22
aI1
aI1
aI76
aa(lp353
I1
aI625
aI1
aI1
aI1
aI29
aI75
aI795
aa(lp354
I1
aI625
aI1
aa(lp355
I1
aI625
aI1
aa(lp356
I1
aI1
aI372
aI1
aI1
aI1
aI6
aa(lp357
I44
aI196
aI648
aI1
aa(lp358
I1
aI661
aI2
aI33
aI18
aa(lp359
I1
aI2
aI627
aa(lp360
I5
aI184
aI1
aI455
aI382
aI1
aI23
aI13
aa(lp361
I1
aI1
aI230
aa(lp362
I174
aI1
aI574
aI1
aI1
aI1
aa(lp363
I133
aI1
aI1
aI683
aI3
aa(lp364
I1
aI282
aI428
aa(lp365
I1
aI1
aI15
aI23
aI869
aa(lp366
I98
aI670
aa(lp367
I50
aI552
aI32
aI1
aa(lp368
I1
aI2
aI1
aa(lp369
I4
aI12
aI78
aa(lp370
I42
aI22
aI1
aI3
aa(lp371
I11
aI1
aI1
aI436
aI1
aa(lp372
I388
aI1
aI2
aI29
aI1
aI7
aI1
aa(lp373
I480
aI724
aI1
aa(lp374
I1
aI3
aI1
aa(lp375
I287
aI40
aI22
aa(lp376
I4
aI1
aI78
aI4
aI23
aI16
aI138
aa(lp377
I27
aI175
aI6
aI461
aa(lp378
I20
aI5
aI337
aI92
aI1
aI1
aI1
aa(lp379
I61
aa(lp380
I1
aI1
aI1
aI1
aI5
aI16
aI225
aI3
aI2
aa(lp381
I16
aI184
aI471
aI3
aa(lp382
I1
aI1
aa(lp383
I302
aI51
aa(lp384
I345
aI1
aI442
aa(lp385
I1
aa(lp386
I5
aI28
aI21
aI578
aI47
aI6
aI257
aI5
aI1
aI8
aa(lp387
I31
aI1
aa(lp388
I1
aI1
aI7
aI116
aI91
aI6
aa(lp389
I31
aI516
aI2
aI33
aI10
aa(lp390
I169
aI5
aI1
aI33
aI10
aa(lp391
I1
aI1
aI212
aI1
aI283
aa(lp392
I1
aI1
aI1
aa(lp393
I1
aI1
aa(lp394
I1
aI1
aI18
aI22
aa(lp395
I585
aI15
aI151
aI2
aI470
aI18
aa(lp396
I5
aI35
aI2
aI1
aI153
aI441
aI210
aI16
aI1
aI164
aa(lp397
I268
aI1
aI81
aa(lp398
I4
aI12
aI81
aI1
aa(lp399
I111
aI5
aI104
aI1
aI28
aI75
aI34
aI1
aI2
aa(lp400
I6
aI4
aI1
aI3
aI10
aa(lp401
I1
aa(lp402
I90
aI575
aI3
aI42
aI134
aa(lp403
I90
aI575
aI3
aI42
aI134
aa(lp404
I9
aI1
aI819
aI2
aI29
aa(lp405
I9
aI251
aI224
aI33
aI1
aI10
aa(lp406
I219
aI36
aI24
aI11
aI204
aI8
aa(lp407
I145
aI157
aI3
aI7
aI858
aI681
aI1
aa(lp408
I1
aI2
aa(lp409
I292
aI103
aa(lp410
I4
aI163
aI34
aI420
aI1
aI292
aI30
aa(lp411
I219
aI4
aI405
aI5
aa(lp412
I44
aI345
aa(lp413
I586
aa(lp414
I191
aI168
aI720
aI1
aI11
aI30
aI1
aa(lp415
I361
aI3
aI1
aI4
aI12
aI32
aI103
aa(lp416
I5
aI96
aI301
aI26
aI1
aI6
aa(lp417
I301
aI1
aI4
aI12
aI163
aI1
aI636
aI3
aa(lp418
I4
aI530
aI5
aI12
aI1
aI94
aa(lp419
a(lp420
I292
aI54
aI4
aI420
aI1
aI391
aa(lp421
I1
aI427
aI597
aI8
aa(lp422
I74
aI568
aI1
aa(lp423
I17
aI100
aI5
aa(lp424
I502
aI11
aI607
aa(lp425
I150
aI5
aI313
aI23
aI150
aI5
aa(lp426
I292
aI70
aI4
aI747
aa(lp427
I254
aI1
aa(lp428
I487
aI292
aI1
aI8
aa(lp429
I5
aI36
aI52
aI1
aI13
aI292
aI2
aI13
aa(lp430
I219
aI36
aI252
aI83
aI199
aI2
aI40
aa(lp431
I863
aa(lp432
I11
aI204
aI2
aI747
aI345
aI1
aI171
aa(lp433
I199
aI1
aI1
aI3
aI5
aa(lp434
I52
aI123
aI292
aI106
aI34
aI1
aI10
aa(lp435
I7
aI68
aI2
aI14
aI383
aI115
aI2
aI14
aI137
aI217
aa(lp436
I383
aI1
aI6
aa(lp437
I449
aI450
aa(lp438
I1
aI2
aI291
aI1
aI1
aa(lp439
I79
aI1
aI662
aI14
aI701
aI192
aI1
aa(lp440
I1
aI302
aI437
aa(lp441
I1
aI768
aI1
aI490
aI11
aa(lp442
I38
aI1
aI1
aI88
aI212
aI2
aI883
aI16
aI290
aa(lp443
I17
aI504
aI1
aI140
aI10
aa(lp444
I779
aa(lp445
I585
aI149
aI10
aI437
aI330
aa(lp446
I1
aa(lp447
I30
aI26
aI1
aI301
aI26
aI1
aI54
aI5
aa(lp448
I260
aI76
aa(lp449
I188
aI92
aI15
aI461
aI869
aI11
aa(lp450
I45
aI36
aI537
aI529
aI6
aa(lp451
I5
aI1
aa(lp452
I27
aI7
aI141
aI147
aI2
aa(lp453
I1
aI446
aI2
aI1
aI1
aa(lp454
I1
aI175
aa(lp455
I1
aI1
aI105
aI175
aa(lp456
I1
aI1
aI1
aI20
aI84
aI49
aa(lp457
I1
aI1
aI706
aa(lp458
I20
aI84
aI577
aI1
aI1
aI105
aa(lp459
I1
aI1
aI1
aI1
aa(lp460
I1
aI1
aa(lp461
I139
aI1
aI47
aI1
aI176
aa(lp462
I19
aI37
aI1
aI1
aI10
aa(lp463
I36
aI376
aI564
aI3
aa(lp464
I5
aI27
aI7
aI32
aI1
aI23
aI198
aa(lp465
I354
aI131
aI1
aI4
aI6
aI43
aI289
aa(lp466
I5
aI96
aI410
aI25
aI1
aI123
aI1
aI99
aI675
aa(lp467
I134
aI394
aI38
aa(lp468
I7
aI36
aI91
aI8
aa(lp469
I126
aI4
aI236
aI1
aa(lp470
I570
aI6
aI591
aI1
aa(lp471
I461
aI1
aI691
aa(lp472
I1
aI376
aI1
aI1
aI1
aI38
aa(lp473
I408
aI189
aI1
aI7
aI15
aI1
aI2
aI56
aI8
aa(lp474
I1
aI675
aI1
aI1
aI1
aI34
aI614
aI18
aa(lp475
I1
aI304
aI1
aI304
aa(lp476
I1
aI354
aI440
aI54
aI4
aI643
aa(lp477
I5
aI96
aI74
aI270
aI1
aI1
aa(lp478
I1
aI128
aa(lp479
I161
aI564
aI3
aI77
aI229
aI53
aa(lp480
I626
aI1
aI1
aI6
aa(lp481
I508
aI3
aI1
aI1
aI517
aa(lp482
I1
aI625
aI1
aI1
aI3
aI6
aa(lp483
I1
aI1
aI1
aa(lp484
I4
aI1
aI196
aI1
aI10
aI220
aI220
aa(lp485
I1
aI2
aI1
aa(lp486
I45
aI1
aa(lp487
I48
aI589
aI1
aI1
aI1
aa(lp488
I5
aI1
aI9
aI18
aa(lp489
I1
aI567
aI1
aa(lp490
I360
aI480
aI480
aI630
aI1
aI1
aI480
aI111
aI1
aa(lp491
I5
aI626
aI20
aI205
aI480
aI18
aa(lp492
I5
aI626
aI20
aI205
aI480
aI18
aa(lp493
I5
aI96
aI1
aI79
aI1
aI1
aI1
aI1
aI1
aI580
aa(lp494
I1
aI23
aI3
aa(lp495
I4
aI2
aI515
aI198
aI1
aI273
aa(lp496
I626
aI2
aI1
aI34
aI111
aI1
aI1
aI2
aI1
aa(lp497
I70
aI1
aI1
aI421
aI1
aI1
aI1
aa(lp498
I5
aI2
aI198
aI24
aI1
aI643
aI1
aI1
aa(lp499
I22
aI444
aI1
aI4
aI1
aI278
aI1
aa(lp500
I150
aI239
aI54
aI5
aa(lp501
I1
aI71
aI329
aI519
aI512
aI1
aI70
aI1
aI1
aa(lp502
I1
aI585
aI1
aI1
aI43
aI23
aa(lp503
I5
aI1
aI7
aa(lp504
I36
aI560
aI654
aI1
aI5
aa(lp505
I4
aI12
aI1
aI26
aa(lp506
I9
aI3
aa(lp507
I7
aI263
aa(lp508
I121
aI15
aI25
aI1
aI1
aa(lp509
I269
aI6
aI1
aI1
aI3
aI95
aa(lp510
I45
aI36
aI543
aI7
aI1
aI2
aI3
aa(lp511
I45
aa(lp512
I5
aI1
aI9
aI1
aI3
aI63
aa(lp513
I135
aa(lp514
I561
aI7
aI200
aI1
aI1
aa(lp515
I4
aI244
aI101
aI1
aa(lp516
I70
aI5
aI451
aI47
aI66
aa(lp517
I7
aI10
aI28
aI285
aI562
aI2
aI473
aI1
aI1
aa(lp518
I7
aI380
aI562
aI2
aI143
aI75
aI1
aI3
aI4
aI3
aa(lp519
I741
aI2
aI673
aa(lp520
I487
aI673
aI487
aI673
aI4
aI7
aI497
aI859
aa(lp521
I739
aI26
aI842
aa(lp522
I1
aI134
aI16
aI296
aI265
aI6
aa(lp523
I1
aa(lp524
I5
aI1
aI339
aI3
aa(lp525
I1
aI404
aI5
aI13
aa(lp526
I1
aI3
aa(lp527
I205
aI637
aI33
aI7
aI1
aa(lp528
I293
aI628
aI205
aI2
aI1
aI7
aI205
aa(lp529
I377
aa(lp530
I1
aI1
aI1
aI1
aa(lp531
I1
aI3
aa(lp532
I67
aI1
aI3
aa(lp533
I37
aI1
aI2
aI189
aI369
aI1
aI2
aI29
aa(lp534
I34
aI190
aa(lp535
I1
aI1
aI1
aI10
aI60
aI64
aa(lp536
I30
aI1
aI108
aa(lp537
I22
aI1
aI10
aa(lp538
I240
aa(lp539
I90
aI240
aI3
aI1
aI1
aa(lp540
I1
aI3
aa(lp541
I30
aI4
aI1
aI8
aa(lp542
I54
aI46
aI213
aI36
aI376
aI14
aI140
aI3
aa(lp543
I1
aI1
aa(lp544
I87
aI223
aI1
aI40
aa(lp545
I33
aI1
aI151
aI10
aa(lp546
I1
aa(lp547
I1
aa(lp548
I1
aa(lp549
I481
aa(lp550
I1
aI1
aI1
aI60
aI64
aa(lp551
I1
aI9
aI1
aa(lp552
I323
aI20
aI872
aI6
aa(lp553
I1
aI5
aI1
aI67
aI3
aa(lp554
I172
aI1
aI7
aI1
aI31
aI1
aI40
aa(lp555
I448
aa(lp556
I4
aI1
aI81
aI1
aa(lp557
I44
aI127
aI1
aa(lp558
I117
aI587
aI3
aa(lp559
I596
aI157
aa(lp560
I1
aI25
aa(lp561
I1
aI1
aa(lp562
I1
aa(lp563
I448
aI4
aI34
aI1
aI2
aa(lp564
I781
aI448
aa(lp565
I380
aI48
aI25
aI13
aa(lp566
I106
aI178
aI243
aI1
aI183
aI1
aa(lp567
I590
aI13
aI782
aI1
aI16
aI590
aI1
aI2
aa(lp568
I4
aI1
aI21
aI1
aI3
aa(lp569
I1
aI569
aa(lp570
I1
aI34
aI56
aI5
aI258
aI2
aa(lp571
I31
aI1
aI10
aI36
aa(lp572
I1
aI1
aI1
aa(lp573
I235
aI385
aI134
aI550
aa(lp574
I1
aI2
aI5
aI235
aa(lp575
I350
aI117
aa(lp576
I235
aa(lp577
I17
aI1
aI791
aI73
aI1
aI3
aa(lp578
I7
aI1
aI1
aa(lp579
I1
aI366
aI368
aI5
aI383
aa(lp580
I4
aI382
aI366
aa(lp581
I125
aI38
aI22
aI5
aI75
aI100
aI568
aI462
aI51
aa(lp582
I366
aI6
aa(lp583
I235
aI1
aa(lp584
I9
aI8
aI1
aI630
aa(lp585
I418
aI101
aI184
aI819
aI2
aa(lp586
I4
aI1
aI1
aI562
aI8
aa(lp587
I562
aI4
aI229
aI126
aI5
aI243
aI35
aa(lp588
I1
aa(lp589
I235
aa(lp590
I235
aa(lp591
I1
aI339
aI547
aI388
aI1
aa(lp592
I350
aI117
aa(lp593
I235
aa(lp594
I235
aa(lp595
I1
aI235
aa(lp596
I505
aI21
aI505
aI69
aI1
aI9
aI298
aI1
aI1
aa(lp597
I85
aI348
aI39
aI9
aI2
aI4
aI16
aI1
aI3
aa(lp598
I348
aI2
aI29
aI1
aI110
aI2
aI29
aI723
aI34
aI800
aa(lp599
I15
aI1
aI1
aI2
aI10
aa(lp600
I1
aI1
aI1
aa(lp601
I1
aI20
aI84
aa(lp602
I316
aI32
aI6
aa(lp603
I19
aI1
aI89
aI1
aa(lp604
I207
aI1
aa(lp605
I4
aI48
aI20
aI1
aI510
aI1
aI16
aI1
aI3
aa(lp606
I1
aI1
aI1
aI510
aI68
aa(lp607
I1
aI414
aI4
aI7
aI862
aI1
aI414
aI6
aa(lp608
I7
aI8
aI1
aI628
aI1
aa(lp609
I1
aI1
aa(lp610
I1
aI1
aI5
aI169
aI4
aI107
aa(lp611
I38
aI38
aI764
aa(lp612
I1
aI297
aI30
aI53
aa(lp613
I1
aI297
aI5
aI84
aI2
aa(lp614
I1
aI1
aI297
aI2
aI5
aI330
aa(lp615
I523
aI1
aI25
aI61
aa(lp616
I1
aI2
aI1
aa(lp617
I1
aI2
aI1
aa(lp618
I4
aI1
aI1
aI6
aI1
aa(lp619
I656
aI1
aI3
aa(lp620
I1
aI1
aI706
aa(lp621
I184
aI819
aI2
aI48
aI25
aI1
aI581
aI1
aa(lp622
I1
aa(lp623
I832
aI9
aI1
aI1
aI6
aI1
aI511
aa(lp624
I20
aI331
aI1
aI6
aa(lp625
I1
aI43
aI1
aI1
aI47
aI1
aI6
aa(lp626
I5
aI20
aI656
aI4
aI193
aI656
aI24
aI588
aI2
aI35
aa(lp627
I1
aI1
aI325
aI442
aa(lp628
I1
aI48
aI9
aI3
aI19
aI14
aI1
aI48
aI123
aI2
aI76
aa(lp629
I4
aI12
aI20
aI656
aI510
aI1
aa(lp630
I5
aI20
aI303
aa(lp631
I1
aI443
aI374
aI1
aI99
aa(lp632
I5
aI20
aI331
aI211
aI13
aa(lp633
I173
aI513
aI1
aI708
aI595
aa(lp634
I173
aI513
aI1
aI708
aI595
aa(lp635
I1
aa(lp636
I4
aI1
aI399
aI743
aI719
aI1
aa(lp637
I1
aI186
aI770
aa(lp638
I19
aI1
aI88
aI26
aI1
aI13
aI538
aI71
aI1
aa(lp639
I1
aa(lp640
I84
aI173
aI2
aI333
aI524
aa(lp641
I77
aI74
aI1
aa(lp642
I5
aI7
aI1
aI2
aI40
aa(lp643
I313
aI1
aI1
aI92
aI1
aI314
aI280
aI1
aa(lp644
I1
aI1
aI203
aa(lp645
I17
aI55
aI1
aI1
aI1
aI1
aa(lp646
I1
aI1
aa(lp647
I1
aI1
aa(lp648
I1
aI159
aI391
aI1
aI1
aa(lp649
I156
aI1
aa(lp650
I519
aI756
aI245
aa(lp651
I831
aI1
aI1
aI795
aI2
aI237
aI48
aI1
aa(lp652
I329
aI243
aI1
aI425
aI207
aI1
aI8
aa(lp653
I151
aI793
aI2
aI1
aI428
aa(lp654
I15
aI1
aI2
aI1
aI32
aI1
aa(lp655
I1
aa(lp656
I144
aI653
aa(lp657
I5
aI1
aI7
aI653
aa(lp658
I409
aa(lp659
I1
aa(lp660
I862
aI224
aI1
aI1
aa(lp661
I5
aI1
aa(lp662
I210
aI112
aa(lp663
I4
aI78
aI4
aI112
aI3
aa(lp664
I660
aI1
aI5
aI112
aI4
aI102
aa(lp665
I5
aI1
aI667
aI4
aI254
aI112
aI5
aI3
aa(lp666
I1
aI61
aa(lp667
I11
aI112
aI5
aI141
aI6
aa(lp668
I1
aI5
aI1
aI1
aI3
aI4
aI1
aI1
aI436
aI69
aa(lp669
I5
aI1
aI667
aI4
aI254
aI112
aI5
aI3
aa(lp670
I368
aI4
aI11
aI112
aI5
aa(lp671
I4
aI12
aI11
aI112
aI5
aa(lp672
I4
aI24
aI409
aI2
aI9
aI102
aa(lp673
I1
aI1
aa(lp674
I9
aI8
aI114
aI4
aI119
aI280
aI409
aa(lp675
I79
aI1
aI14
aI1
aa(lp676
I660
aI1
aa(lp677
I87
aI1
aI4
aI7
aI653
aa(lp678
I144
aI653
aa(lp679
I343
aa(lp680
I129
aa(lp681
I7
aI342
aa(lp682
I433
aa(lp683
I9
aI8
aI5
aI2
aI433
aI4
aI2
aI342
aa(lp684
I31
aI5
aI2
aI7
aI433
aI4
aI2
aI7
aI342
aa(lp685
I1
aa(lp686
I67
aI1
aI1
aa(lp687
I1
aI1
aI1
aa(lp688
I9
aI8
aI5
aI1
aa(lp689
I4
aI148
aI7
aI592
aI6
aI19
aI4
aI12
aI1
aa(lp690
I1
aI1
aa(lp691
I4
aI123
aI54
aI5
aI40
aa(lp692
I1
aI21
aI1
aa(lp693
I285
aI14
aI110
aI3
aI826
aI6
aI22
aa(lp694
a(lp695
I1
aI1
aa(lp696
I5
aI184
aI23
aI270
aI2
aa(lp697
I92
aI1
aI1
aI8
aI1
aa(lp698
I299
aI5
aI293
aI3
aa(lp699
I225
aa(lp700
I20
aI1
aI176
aI53
aI548
aI424
aa(lp701
I92
aI26
aI214
aI8
aI257
aI1
aI852
aI852
aI50
aa(lp702
I465
aI92
aI238
aI1
aI3
aI55
aa(lp703
I20
aI1
aI176
aI53
aI548
aI424
aa(lp704
I1
aI3
aI633
aI529
aa(lp705
I529
aI208
aa(lp706
I529
aI208
aa(lp707
I187
aI4
aI316
aI1
aI532
aI1
aa(lp708
I1
aI7
aI1
aI840
aI2
aa(lp709
I4
aI1
aI593
aa(lp710
I19
aI4
aI196
aI1
aI1
aI1
aa(lp711
I36
aI474
aI3
aa(lp712
I1
aI1
aI1
aI48
aI151
aI6
aa(lp713
I5
aI1
aI1
aI3
aI1
aa(lp714
I1
aI6
aI736
aI612
aI1
aI95
aa(lp715
I1
aI1
aI1
aI3
aa(lp716
I393
aI67
aI211
aI127
aI40
aa(lp717
I4
aI1
aI1
aI3
aa(lp718
I114
aI600
aI2
aI7
aI5
aa(lp719
I11
aI1
aI1
aa(lp720
I1
aI2
aI363
aI392
aI224
aI31
aI1
aa(lp721
I96
aI7
aI1
aI19
aI1
aI1
aI2
aI234
aa(lp722
I1
aI9
aI583
aI1
aI9
aI583
aa(lp723
I121
aI690
aI20
aI134
aI92
aI1
aI2
aI10
aa(lp724
I9
aI1
aI481
aI2
aI4
aI1
aI1
aa(lp725
I5
aI38
aI7
aI824
aI2
aI3
aa(lp726
I4
aI14
aI824
aI7
aI5
aI36
aI447
aI9
aI1
aa(lp727
I1
aI7
aI1
aI2
aa(lp728
I1
aI36
aI32
aI1
aa(lp729
I19
aI148
aI7
aI1
aI1
aI89
aa(lp730
I1
aI7
aI1
aI2
aa(lp731
I36
aI734
aa(lp732
I4
aI14
aI824
aI7
aI5
aI36
aI447
aI9
aI1
aa(lp733
I161
aI1
aI7
aI1
aI6
aa(lp734
I1
aI219
aI614
aI1
aa(lp735
I4
aI12
aI1
aa(lp736
I4
aI1
aI443
aa(lp737
I219
aI7
aI1
aa(lp738
I1
aI8
aI698
aa(lp739
I21
aI1
aI3
aa(lp740
I641
aI7
aI107
aI1
aa(lp741
I5
aI1
aI3
aI1
aa(lp742
I141
aI7
aI1
aa(lp743
I40
aI124
aI1
aI2
aI191
aa(lp744
I5
aI35
aI2
aI242
aI7
aI40
aI91
aa(lp745
I5
aI1
aa(lp746
I1
aI1
aI514
aI16
aI23
aI1
aa(lp747
I1
aa(lp748
I52
aI1
aI2
aI16
aI714
aI238
aI18
aa(lp749
I9
aI1
aI1
aI2
aI1
aa(lp750
I554
aa(lp751
I554
aI99
aI663
aI222
aa(lp752
I1
aa(lp753
I323
aI3
aI8
aa(lp754
I1
aI298
aI234
aI2
aI6
aa(lp755
I1
aI298
aI234
aI2
aI6
aa(lp756
I174
aI1
aa(lp757
I1
aI20
aI303
aI1
aa(lp758
I1
aI1
aI352
aI1
aI11
aa(lp759
I100
aI1
aI53
aI234
aa(lp760
I1
aa(lp761
I46
aI148
aI1
aI1
aI53
aI38
aa(lp762
I9
aI1
aI586
aI53
aa(lp763
I4
aI1
aI1
aI173
aa(lp764
I1
aI4
aI196
aI1
aI2
aI1
aI17
aa(lp765
I1
aI100
aI1
aI1
aa(lp766
I1
aI1
aI16
aI70
aI5
aI15
aI1
aI8
aa(lp767
I1
aI19
aI73
aI1
aI5
aI3
aa(lp768
I1
aI1
aI160
aI2
aI24
aI1
aa(lp769
I130
aI1
aI3
aI25
aI1
aI335
aI255
aI3
aI83
aa(lp770
I1
aI1
aI3
aa(lp771
I1
aI3
aI12
aI85
aI823
aI9
aI2
aI22
aa(lp772
I1
aI686
aI710
aI336
aI823
aI222
aI3
aI22
aa(lp773
I1
aI13
aa(lp774
I5
aI444
aI1
aI1
aI2
aI7
aI4
aI41
aI46
aa(lp775
I46
aa(lp776
I1
aI13
aa(lp777
I1
aI4
aI318
aI3
aa(lp778
I821
aI7
aI5
aI2
aI1
aI1
aI11
aI1
aa(lp779
I11
aI4
aI2
aI1
aI7
aI1
aI2
aa(lp780
I36
aI832
aI75
aI460
aI545
aI1
aa(lp781
I1
aI1
aI1
aa(lp782
a(lp783
I27
aI14
aI334
aI705
aa(lp784
I67
aI355
aI407
aI355
aI1
aI8
aa(lp785
I27
aI7
aI1
aI1
aI176
aI40
aa(lp786
I43
aI1
aI254
aI52
aI1
aI43
aI97
aa(lp787
I36
aI869
aI855
aI22
aa(lp788
I114
aI27
aI7
aI1
aI376
aa(lp789
I58
aI111
aI1
aI1
aI20
aI303
aI13
aa(lp790
I19
aI731
aI4
aI305
aa(lp791
I1
aI1
aa(lp792
I1
aI3
aI8
aI1
aa(lp793
I355
aI1
aI8
aa(lp794
I1
aI50
aI1
aI1
aI79
aI1
aI1
aI188
aI2
aa(lp795
I19
aI67
aI355
aI1
aI8
aa(lp796
I1
aI1
aI14
aI1
aI7
aI1
aa(lp797
I1
aa(lp798
I267
aI1
aa(lp799
I1
aI2
aI103
aa(lp800
I1
aa(lp801
I4
aI7
aI20
aI1
aI1
aI23
aa(lp802
I5
aI286
aI25
aI1
aI203
aI1
aI3
aa(lp803
I158
aI1
aI93
aI2
aI1
aI3
aa(lp804
I146
aI68
aI613
aI113
aa(lp805
I487
aI146
aa(lp806
I4
aI1
aI6
aa(lp807
I5
aI139
aI111
aI150
aI239
aI1
aI1
aI2
aI1
aa(lp808
I17
aI42
aI294
aI2
aI501
aa(lp809
I497
aI115
aa(lp810
I4
aI12
aI20
aI153
aI226
aI22
aa(lp811
I50
aa(lp812
I1
aI5
aI259
aI323
aI368
aI4
aI259
aI2
aa(lp813
I4
aI12
aI259
aa(lp814
I202
aI259
aI94
aI66
aa(lp815
I4
aI72
aI168
aa(lp816
I4
aI72
aI168
aa(lp817
I797
aI49
aa(lp818
I208
aI4
aI72
aI168
aa(lp819
I4
aI7
aI497
aI68
aa(lp820
I1
aI1
aI12
aI200
aI1
aa(lp821
I4
aI7
aI497
aI68
aI1
aI4
aI280
aI616
aI1
aI3
aI4
aa(lp822
I1
aI1
aI65
aI71
aI3
aI1
aI1
aI38
aI22
aa(lp823
I146
aI68
aI1
aI1
aa(lp824
I4
aI1
aa(lp825
I12
aI31
aa(lp826
I45
aI19
aI14
aI1
aI3
aI22
aa(lp827
I1
aI4
aa(lp828
I7
aI2
aI7
aI2
aa(lp829
I1
aI434
aa(lp830
I146
aI31
aI258
aI10
aa(lp831
I4
aI473
aI1
aI2
aI146
aI9
aI10
aa(lp832
I1
aI5
aa(lp833
I1
aI9
aI1
aI373
aa(lp834
I131
aI1
aI4
aa(lp835
I631
aI5
aI13
aa(lp836
I1
aI405
aI617
aI5
aI2
aI1
aa(lp837
I30
aI1
aI1
aI2
aI1
aI113
aa(lp838
I1
aI511
aa(lp839
I1
aI255
aI3
aI1
aI1
aI3
aI1
aI527
aa(lp840
I365
aI527
aa(lp841
I288
aI809
aI189
aa(lp842
I1
aI1
aa(lp843
I94
aa(lp844
I4
aI7
aI146
aI68
aI6
aa(lp845
I6
aa(lp846
I146
aI338
aI6
aI1
aI5
aI3
aI18
aa(lp847
I497
aI68
aI1
aI2
aI511
aa(lp848
I1
aI12
aI1
aI3
aa(lp849
I7
aI6
aI17
aa(lp850
I1
aI1
aa(lp851
I827
aI1
aI3
aI173
aI1
aI1
aa(lp852
I783
aI1
aI84
aI7
aI1
aI85
aI1
aI2
aa(lp853
I293
aI688
aI696
aI432
aI621
aI2
aa(lp854
I293
aI688
aI696
aI295
aI53
aI1
aI2
aa(lp855
I1
aa(lp856
I1
aI1
aI325
aa(lp857
I228
aI1
aI33
aI650
aa(lp858
I67
aI521
aI28
aI33
aI212
aI527
aa(lp859
I118
aI848
aI527
aa(lp860
I50
aI848
aI1
aa(lp861
I1
aI68
aI33
aI260
aI11
aa(lp862
I497
aI115
aI1
aa(lp863
I1
aa(lp864
I94
aa(lp865
I5
aI112
aI1
aa(lp866
I1
aI500
aI1
aa(lp867
a(lp868
I121
aI13
aa(lp869
I4
aI13
aI1
aa(lp870
I1
aI376
aI1
aa(lp871
I67
aI1
aI294
aI6
aa(lp872
I296
aa(lp873
I1
aI1
aI404
aa(lp874
I4
aI57
aI835
aI11
aI1
aI14
aI1
aa(lp875
I154
aI29
aI24
aI1
aa(lp876
I19
aI96
aI1
aI8
aI1
aa(lp877
I1
aI4
aI1
aI4
aI72
aI284
aI866
aI3
aa(lp878
I1
aI35
aI1
aI1
aI3
aa(lp879
I835
aI264
aI1
aI1
aI782
aa(lp880
I291
aI39
aI1
aI1
aa(lp881
I1
aI1
aI76
aa(lp882
I1
aI3
aa(lp883
I1
aa(lp884
I1
aI1
aI1
aI1
aI1
aa(lp885
I1
aI3
aI1
aI660
aI2
aI1
aI1
aI1
aI241
aa(lp886
I4
aI178
aI420
aI253
aI1
aI658
aa(lp887
I720
aI5
aI28
aI30
aI1
aI4
aI2
aI803
aa(lp888
I571
aI1
aI3
aI4
aI2
aI803
aa(lp889
I1
aI309
aa(lp890
I262
aI262
aI262
aa(lp891
I36
aI1
aI11
aI540
aa(lp892
I540
aI3
aI1
aI124
aI1
aI10
aa(lp893
I265
aI3
aI16
aa(lp894
I56
aI40
aI19
aI255
aa(lp895
I243
aI832
aI47
aI209
aI47
aI447
aI1
aI7
aI481
aa(lp896
I1
aI679
aI1
aI1
aI25
aa(lp897
I720
aI5
aI28
aI30
aI1
aI4
aI803
aa(lp898
I668
aI1
aI3
aa(lp899
I1
aI2
aI5
aI96
aI1
aa(lp900
I1
aI591
aI3
aa(lp901
I1
aI591
aI3
aa(lp902
I19
aI1
aI5
aI802
aI28
aI21
aI190
aa(lp903
I29
aI1
aI802
aI1
aa(lp904
I4
aI82
aI1
aI410
aI1
aI3
aI1
aa(lp905
I1
aI28
aI48
aI1
aI46
aa(lp906
I571
aI1
aI3
aI4
aI2
aI803
aa(lp907
I4
aI1
aI162
aI1
aI350
aa(lp908
I137
aI3
aa(lp909
I272
aa(lp910
I25
aI1
aI1
aI1
aa(lp911
I854
aI153
aI36
aI1
aI41
aI421
aI46
aa(lp912
I381
aI19
aI14
aI1
aI8
aa(lp913
I224
aI444
aI884
aI4
aI41
aI1
aI241
aa(lp914
I884
aI1
aI1
aI2
aa(lp915
I1
aI5
aI149
aI10
aI3
aa(lp916
I262
aI49
aI1
aI3
aI57
aI1
aI694
aI3
aa(lp917
I53
aI1
aI2
aI1
aI176
aa(lp918
I392
aI392
aa(lp919
I1
aI523
aa(lp920
I44
aI1
aI2
aI4
aI1
aI210
aI1
aa(lp921
I1
aI28
aI21
aI30
aa(lp922
I86
aI1
aI2
aI16
aI308
aI2
aa(lp923
I44
aI16
aI308
aI2
aI13
aa(lp924
I1
aa(lp925
I5
aI55
aa(lp926
I1
aa(lp927
I1
aI1
aa(lp928
I1
aa(lp929
I1
aa(lp930
I392
aI392
aa(lp931
I418
aI1
aI100
aI1
aI530
aa(lp932
I1
aa(lp933
I6
aI1
aI8
aa(lp934
I1
aa(lp935
I1
aI1
aI1
aa(lp936
I58
aI1
aa(lp937
I1
aa(lp938
I1
aI1
aI2
aI124
aI23
aI1
aa(lp939
I7
aI6
aI1
aI210
aI1
aI101
aI80
aI611
aI2
aa(lp940
I1
aI7
aI1
aI611
aI2
aa(lp941
I658
aI738
aI2
aI251
aI58
aI6
aI58
aa(lp942
I493
aI251
aI58
aI251
aa(lp943
I4
aI7
aI627
aI43
aI2
aI1
aa(lp944
I39
aI105
aI680
aI579
aI2
aI1
aa(lp945
I187
aI5
aI2
aI447
aI7
aI1
aI7
aI10
aa(lp946
I4
aI748
aI6
aI22
aa(lp947
I1
aI1
aa(lp948
I569
aI190
aI45
aa(lp949
I173
aa(lp950
I106
aI41
aI301
aI1
aI2
aI1
aa(lp951
I178
aI54
aI1
aI878
aI253
aI1
aI1
aI1
aI6
aa(lp952
I1
aI74
aI1
aI2
aI414
aI1
aI2
aa(lp953
I1
aI74
aI1
aI2
aI414
aI1
aI2
aa(lp954
I448
aI58
aI397
aa(lp955
I37
aI6
aI363
aI323
aI1
aa(lp956
I1
aI870
aI4
aI447
aI177
aa(lp957
I215
aI5
aI693
aI9
aa(lp958
I177
aI5
aI20
aI84
aI2
aa(lp959
I1
aI1
aa(lp960
I9
aI403
aa(lp961
I121
aI20
aI84
aa(lp962
I1
aI1
aI1
aa(lp963
I9
aI8
aI117
aI1
aI16
aa(lp964
I162
aI31
aI655
aI325
aI280
aI1
aI3
aa(lp965
I180
aI1
aI655
aI325
aI2
aI1
aI6
aa(lp966
I55
aI1
aa(lp967
I44
aI319
aI2
aa(lp968
I19
aI733
aI31
aI45
aI1
aI1
aI45
aa(lp969
I167
aI2
aa(lp970
I55
aa(lp971
I1
aI2
aa(lp972
I130
aI532
aI2
aI876
aI97
aI1
aa(lp973
I139
aI103
aa(lp974
I1
aI809
aa(lp975
I336
aI261
aI1
aI409
aI3
aa(lp976
I167
aI458
aa(lp977
I1
aI1
aI1
aI2
aI1
aI168
aa(lp978
I341
aI1
aI1
aI2
aI107
aI1
aa(lp979
I354
aI72
aI1
aI3
aa(lp980
I97
aI1
aI1
aI1
aI3
aa(lp981
I1
aI1
aI458
aI707
aa(lp982
I97
aI6
aI651
aI599
aI35
aa(lp983
I9
aI1
aI1
aI1
aI30
aI458
aI51
aa(lp984
I89
aI1
aI8
aI22
aa(lp985
I514
aI736
aI229
aI2
aI176
aI119
aI583
aI229
aa(lp986
I170
aI27
aI887
aI583
aI2
aI229
aI1
aa(lp987
I67
aI89
aI1
aI2
aI29
aa(lp988
I9
aI8
aI1
aI1
aa(lp989
I1
aI11
aI112
aI603
aI406
aa(lp990
I141
aI7
aI1
aa(lp991
I603
aI1
aa(lp992
I9
aI8
aI1
aI1
aI1
aI11
aa(lp993
I269
aI1
aI29
aI14
aI140
aa(lp994
I11
aI1
aI7
aI67
aI2
aI1
aa(lp995
I58
aI1
aI6
aI150
aI239
aa(lp996
I58
aI150
aI239
aI58
aI1
aI42
aI6
aa(lp997
I58
aI150
aI239
aa(lp998
I354
aI1
aI1
aa(lp999
I58
aI1
aI103
aI42
aa(lp1000
I14
aI1
aI9
aI1
aa(lp1001
I477
aI5
aa(lp1002
I107
aI1
aa(lp1003
I5
aI34
aI1
aI1
aa(lp1004
I33
aI395
aI395
aa(lp1005
I30
aa(lp1006
I5
aI32
aI54
aI4
aI1
aI18
aa(lp1007
I1
aI1
aI100
aI1
aI813
aI1
aa(lp1008
I1
aI7
aI454
aI811
aI436
aI31
aI454
aI1
aa(lp1009
I1
aI205
aI320
aI327
aI1
aa(lp1010
I814
aa(lp1011
I42
aI519
aI756
aI245
aa(lp1012
I86
aI587
aI2
aa(lp1013
I585
aI15
aI635
aI18
aa(lp1014
I139
aI711
aI865
aI635
aa(lp1015
I73
aI9
aI3
aI42
aa(lp1016
I15
aI635
aI18
aI15
aI1
aI6
aa(lp1017
I139
aI711
aI865
aI635
aa(lp1018
I725
aI499
aa(lp1019
I1
aI285
aI71
aa(lp1020
I1
aI77
aI1
aI1
aI1
aI2
aI1
aa(lp1021
I1
aI1
aI777
aI204
aI66
aa(lp1022
I1
aI31
aI1
aI71
aI7
aI1
aI873
aI177
aa(lp1023
I1
aI1
aI28
aI33
aa(lp1024
I210
aI380
aI565
aI2
aI1
aa(lp1025
I565
aI1
aI51
aI266
aI2
aI317
aI1
aa(lp1026
I619
aI252
aI300
aI62
aa(lp1027
I28
aI21
aI578
aI47
aI10
aa(lp1028
I1
aI2
aI4
aI29
aI24
aI204
aI2
aa(lp1029
I516
aI423
aI16
aI1
aI381
aI2
aa(lp1030
I1
aI5
aI35
aI2
aI24
aI1
aI1
aI42
aa(lp1031
I483
aI191
aI723
aI5
aI259
aI2
aa(lp1032
I1
aI161
aI1
aI763
aI7
aI1
aa(lp1033
I808
aI35
aI10
aa(lp1034
I28
aI21
aI111
aI1
aI137
aI13
aa(lp1035
I14
aI275
aI5
aI7
aI8
aa(lp1036
I180
aI7
aI1
aI377
aa(lp1037
I258
aI1
aI24
aI619
aa(lp1038
I227
aI49
aI28
aI31
aI5
aI601
aI67
aa(lp1039
I619
aI252
aI300
aI62
aa(lp1040
I453
aI1
aI95
aa(lp1041
I7
aI1
aI18
aa(lp1042
I1
aI11
aI1
aa(lp1043
I163
aI173
aI69
aI1
aI1
aa(lp1044
I4
aI7
aI1
aI1
aa(lp1045
I208
aI4
aI7
aI737
aI679
aI79
aI1
aa(lp1046
I1
aI17
aI55
aI70
aI17
aI55
aa(lp1047
I1
aa(lp1048
I214
aI92
aa(lp1049
I689
aI7
aI600
aI2
aa(lp1050
I5
aI1
aI352
aI181
aa(lp1051
I38
aI768
aI722
aI2
aI242
aI5
aI16
aI194
aI47
aa(lp1052
I1
aI89
aI62
aa(lp1053
I118
aI27
aI7
aI1
aI1
aI10
aa(lp1054
I17
aI120
aI15
aI1
aI314
aI6
aa(lp1055
I4
aI495
aI295
aI1
aa(lp1056
I1
aa(lp1057
I1
aI1
aI256
aI2
aI1
aa(lp1058
I161
aI161
aI5
aI32
aI1
aI1
aI6
aa(lp1059
I1
aI1
aI28
aI155
aI86
aa(lp1060
I1
aI113
aI1
aI691
aI407
aI192
aI1
aa(lp1061
I52
aI104
aI328
aI13
aa(lp1062
I563
aI1
aa(lp1063
I62
aa(lp1064
I62
aI1
aI9
aI1
aa(lp1065
I1
aI190
aI219
aI2
aI186
aI814
aa(lp1066
I634
aI7
aI1
aI2
aI237
aI125
aa(lp1067
I1
aI696
aI1
aI1
aI2
aa(lp1068
I1
aI2
aI1
aI1
aI1
aI13
aa(lp1069
I5
aI1
aI3
aa(lp1070
I1
aa(lp1071
I90
aI1
aI1
aI3
aa(lp1072
I4
aI54
aI1
aI1
aI53
aI679
aa(lp1073
I22
aI5
aI54
aI4
aI1
aI3
aI22
aa(lp1074
I1
aI21
aI65
aI69
aa(lp1075
I1
aI1
aI1
aI21
aI65
aI69
aa(lp1076
I4
aI78
aI5
aI1
aI11
aI1
aI1
aI6
aa(lp1077
I1
aI1
aI335
aI744
aI7
aI11
aa(lp1078
I6
aI7
aa(lp1079
I1
aI1
aI23
aI2
aa(lp1080
I19
aI738
aI188
aI16
aI20
aI51
aa(lp1081
I1
aI1
aI410
aa(lp1082
I275
aI26
aI230
aI142
aI110
aa(lp1083
I230
aI641
aI851
aI871
aI21
aI1
aI6
aa(lp1084
I114
aI4
aI90
aI1
aI3
aa(lp1085
I4
aI12
aI32
aI26
aI472
aI30
aI569
aI788
aa(lp1086
I9
aI8
aI122
aa(lp1087
I144
aI230
aa(lp1088
I50
aI230
aa(lp1089
I125
aI230
aa(lp1090
I93
aI349
aI240
aI1
aI1
aI1
aI1
aI13
aa(lp1091
I5
aI14
aI1
aI3
aa(lp1092
I345
aI712
aI2
aI770
aa(lp1093
I59
aa(lp1094
I377
aa(lp1095
I32
aI564
aI3
aI377
aa(lp1096
I271
aI476
aa(lp1097
I169
aI4
aI107
aa(lp1098
I9
aI8
aI17
aI342
aI1
aI428
aa(lp1099
I66
aI42
aa(lp1100
I45
aI28
aI1
aI6
aa(lp1101
I126
aI186
aI1
aI3
aI5
aa(lp1102
I174
aI345
aa(lp1103
I785
aI30
aI1
aI3
aI5
aa(lp1104
I9
aI849
aI2
aI154
aa(lp1105
I149
aI10
aI31
aI256
aI428
aa(lp1106
I172
aI868
aI438
aI256
aa(lp1107
I189
aI1
aa(lp1108
I9
aI8
aI192
aI31
aI256
aa(lp1109
I271
aI476
aa(lp1110
I1
aa(lp1111
I1
aI101
aI662
aI1
aI189
aI6
aa(lp1112
I1
aI1
aI10
aa(lp1113
I11
aI6
aa(lp1114
I22
aI252
aI11
aI1
aa(lp1115
I96
aI7
aI1
aI1
aI332
aa(lp1116
I7
aI102
aI1
aI1
aa(lp1117
I5
aI157
aI3
aI22
aa(lp1118
I1
aa(lp1119
I482
aI161
aI1
aI564
aI713
aa(lp1120
I1
aI10
aa(lp1121
I149
aI10
aI31
aI256
aI428
aa(lp1122
I59
aa(lp1123
I189
aI1
aa(lp1124
I377
aa(lp1125
I377
aI51
aa(lp1126
I7
aI4
aI322
aI849
aI10
aa(lp1127
I135
aI6
aI380
aI849
aI2
aI305
aI3
aI45
aI5
aa(lp1128
I63
aa(lp1129
I5
aI2
aI252
aI7
aa(lp1130
I1
aI57
aI1
aI712
aa(lp1131
I1
aI387
aI1
aI1
aa(lp1132
I4
aI78
aI1
aI329
aI20
aI46
aI2
aI337
aI446
aa(lp1133
I1
aI152
aI39
aI1
aa(lp1134
I610
aI1
aI648
aI138
aa(lp1135
I175
aI128
aI6
aa(lp1136
I314
aI884
aa(lp1137
I570
aI31
aI1
aI6
aI118
aI27
aI1
aI263
aa(lp1138
I37
aI1
aI1
aI2
aI1
aa(lp1139
I399
aI651
aI26
aI484
aI682
aa(lp1140
I633
aI191
aI4
aI1
aI10
aa(lp1141
I457
aI16
aI1
aI3
aa(lp1142
I170
aI4
aI1
aI3
aa(lp1143
I180
aI58
aa(lp1144
I357
aI88
aI357
aI88
aI14
aI680
aI3
aa(lp1145
I5
aI27
aI209
aI210
aI4
aI1
aI414
aI6
aa(lp1146
I37
aI13
aa(lp1147
I165
aI16
aI578
aI3
aI117
aI1
aI3
aI16
aa(lp1148
I15
aI18
aa(lp1149
I7
aI6
aI57
aI14
aI1
aa(lp1150
I398
aI39
aI68
aI2
aI18
aa(lp1151
I459
aI2
aI24
aI822
aa(lp1152
I224
aI1
aI1
aI2
aI12
aI285
aI71
aI2
aa(lp1153
I641
aI7
aI1
aI2
aa(lp1154
I136
aI1
aI258
aa(lp1155
I482
aI186
aI2
aI1
aI1
aa(lp1156
I260
aI113
aa(lp1157
I125
aI1
aa(lp1158
I117
aI47
aI1
aI1
aa(lp1159
I14
aI223
aI74
aI26
aI1
aI2
aI1
aI40
aa(lp1160
I1
aI2
aI81
aI11
aa(lp1161
I289
aI289
aa(lp1162
I1
aI285
aa(lp1163
I50
aa(lp1164
I484
aI1
aa(lp1165
I493
aI1
aI55
aa(lp1166
I1
aI1
aI112
aI95
aa(lp1167
I52
aI124
aI1
aa(lp1168
I1
aa(lp1169
I60
aa(lp1170
I375
aa(lp1171
I109
aI1
aI265
aI3
aa(lp1172
I1
aa(lp1173
I5
aI7
aI496
aI2
aI1
aa(lp1174
I21
aI1
aI26
aI166
aa(lp1175
I1
aa(lp1176
I114
aI174
aI395
aI1
aI1
aa(lp1177
I357
aI1
aI114
aI1
aI24
aI573
aI2
aa(lp1178
I7
aI33
aI41
aI1
aI6
aa(lp1179
I399
aI651
aI26
aI484
aI682
aa(lp1180
I1
aI69
aI1
aI113
aa(lp1181
I1
aI648
aI223
aI273
aI24
aI772
aa(lp1182
I9
aI8
aI93
aI394
aI8
aa(lp1183
I399
aI5
aI299
aI26
aI74
aI358
aa(lp1184
I5
aI7
aI138
aI4
aI2
aI1
aI6
aa(lp1185
I4
aI12
aI136
aI4
aI12
aI136
aa(lp1186
I22
aI27
aI7
aI126
aI4
aI1
aa(lp1187
I9
aI2
aI14
aI104
aI789
aa(lp1188
I1
aI4
aI153
aI5
aI2
aa(lp1189
I57
aI1
aI1
aI18
aa(lp1190
I27
aI1
aI23
aI1
aI6
aa(lp1191
I7
aI6
aI732
aI1
aI45
aa(lp1192
I306
aI52
aI701
aI3
aa(lp1193
I66
aI1
aa(lp1194
I5
aI1
aI30
aI113
aI4
aI16
aI1
aI3
aa(lp1195
I759
aI7
aI4
aI2
aI157
aa(lp1196
I1
aI1
aI29
aI14
aI231
aI6
aa(lp1197
I1
aa(lp1198
I4
aI1
aI742
aI38
aI17
aa(lp1199
I366
aI2
aa(lp1200
I119
aI11
aa(lp1201
I45
aI1
aI32
aI609
aI117
aI1
aa(lp1202
I60
aI177
aI177
aI64
aa(lp1203
I19
aI1
aI1
aa(lp1204
I1
aI742
aI492
aI2
aI1
aI1
aa(lp1205
I1
aI398
aI1
aa(lp1206
I1
aa(lp1207
I15
aI71
aI1
aI6
aa(lp1208
I357
aI88
aI357
aI88
aI5
aI68
aI674
aI528
aI14
aI680
aI3
aa(lp1209
I1
aI104
aI1
aI243
aI1
aI213
aI523
aa(lp1210
I366
aI2
aa(lp1211
I5
aI123
aI4
aI1
aI531
aa(lp1212
I66
aa(lp1213
I1
aI1
aa(lp1214
I1
aI863
aI40
aa(lp1215
I136
aI23
aa(lp1216
I1
aI511
aa(lp1217
I1
aI642
aa(lp1218
I507
aI7
aI544
aI31
aI19
aI98
aI40
aa(lp1219
I1
aI1
aI9
aI236
aI1
aI1
aI9
aI863
aa(lp1220
I50
aa(lp1221
I50
aa(lp1222
I82
aI1
aI1
aI119
aI140
aa(lp1223
I343
aa(lp1224
I459
aI2
aI24
aI822
aa(lp1225
I224
aI1
aI1
aI2
aI12
aI285
aI71
aI2
aa(lp1226
a(lp1227
I398
aI31
aI104
aI488
aI2
aa(lp1228
I398
aI21
aI1
aI9
aa(lp1229
I36
aI32
aI43
aI861
aa(lp1230
I357
aI88
aI357
aI88
aI5
aI68
aI674
aI528
aI14
aI680
aI3
aa(lp1231
I1
aI186
aI181
aI784
aI5
aI1
aI3
aa(lp1232
I1
aa(lp1233
I154
aI1
aI9
aI1
aa(lp1234
I1
aI361
aI76
aa(lp1235
I361
aa(lp1236
I15
aI1
aI1
aI2
aI613
aI21
aa(lp1237
I680
aI3
aI402
aI12
aI222
aI8
aa(lp1238
I236
aI484
aI1
aI11
aI14
aI1
aa(lp1239
I357
aI88
aI357
aI88
aI5
aI68
aI674
aI528
aI14
aI680
aI3
aa(lp1240
I627
aI58
aI398
aI7
aI15
aI71
aI541
aa(lp1241
I496
aI1
aa(lp1242
I1
aI163
aI20
aI66
aI200
aa(lp1243
I864
aI2
aI33
aI40
aa(lp1244
I397
aI396
aI504
aI11
aI864
aI1
aI8
aa(lp1245
I864
aI31
aI1
aa(lp1246
a(lp1247
I23
aI198
aI49
aI416
aI538
aa(lp1248
I5
aI119
aI416
aI60
aI64
aa(lp1249
I1
aI28
aI1
aa(lp1250
I495
aI12
aI37
aa(lp1251
I39
aI39
aI39
aI416
aa(lp1252
I145
aI5
aI145
aI5
aI145
aI5
aa(lp1253
I1
aa(lp1254
I419
aa(lp1255
I73
aI1
aI222
aI83
aa(lp1256
I817
aa(lp1257
I4
aI28
aI1
aI13
aa(lp1258
I1
aa(lp1259
I4
aa(lp1260
I4
aI4
aI4
aa(lp1261
I4
aa(lp1262
I132
aI1
aI442
aI203
aa(lp1263
I27
aI7
aI212
aI1
aI8
aI28
aI1
aI1
aI2
aa(lp1264
I1
aI18
aa(lp1265
I4
aI14
aI203
aI4
aI1
aa(lp1266
I119
aI1
aI60
aa(lp1267
I1
aI3
aI90
aI1
aI1
aI3
aa(lp1268
I212
aI238
aI169
aI1
aI1
aI71
aI3
aa(lp1269
I1
aa(lp1270
I114
aI4
aI56
aI189
aI21
aI155
aI406
aa(lp1271
I1
aI31
aI24
aI584
aI18
aI60
aI61
aI64
aa(lp1272
I36
aI99
aI443
aI28
aI1
aI11
aa(lp1273
I109
aI1
aI265
aI3
aa(lp1274
I488
aI398
aI3
aI21
aa(lp1275
I56
aI2
aI1
aI2
aI48
aI355
aa(lp1276
I133
aI1
aI398
aI7
aI1
aI1
aa(lp1277
I563
aI374
aI1
aI1
aa(lp1278
I45
aI36
aI543
aI16
aI1
aI3
aI164
aa(lp1279
I1
aI4
aI7
aI26
aI15
aI1
aI2
aI29
aI8
aI17
aa(lp1280
I19
aI186
aI1
aI53
aI332
aa(lp1281
I27
aI4
aI21
aI155
aI1
aa(lp1282
I45
aI4
aI227
aI1
aI3
aI1
aI177
aa(lp1283
I5
aI1
aI6
aa(lp1284
I45
aI323
aI220
aI220
aa(lp1285
I162
aI1
aI4
aI53
aI29
aI6
aa(lp1286
I9
aI3
aI4
aI7
aI15
aI209
aI2
aI29
aI3
aa(lp1287
I1
aI28
aI285
aI1
aI2
aa(lp1288
I287
aI74
aI18
aa(lp1289
I1
aa(lp1290
a(lp1291
I1
aI1
aI2
aI91
aa(lp1292
I35
aI87
aa(lp1293
I1
aI747
aa(lp1294
I494
aI124
aI4
aI1
aI358
aI365
aI6
aa(lp1295
I1
aI1
aI8
aa(lp1296
I1
aI1
aI1
aI660
aI373
aa(lp1297
I1
aI1
aI1
aI660
aI373
aa(lp1298
I1
aI204
aI2
aI150
aI1
aa(lp1299
I55
aI118
aI75
aI15
aI1
aa(lp1300
I158
aI453
aI20
aI1
aI326
aI13
aa(lp1301
I205
aI1
aI326
aI1
aI41
aI1
aa(lp1302
I1
aI20
aI483
aI1
aI4
aI405
aI197
aI533
aI23
aa(lp1303
I4
aI12
aI130
aa(lp1304
I5
aI153
aI141
aI35
aI2
aa(lp1305
I1
aI471
aI1
aa(lp1306
I321
aI264
aI6
aa(lp1307
I74
aI188
aI1
aI183
aI6
aa(lp1308
I1
aI1
aI1
aa(lp1309
I4
aI1
aI1
aa(lp1310
I303
aI100
aI303
aI1
aa(lp1311
I1
aI798
aI1
aI1
aa(lp1312
I1
aI798
aI1
aI1
aa(lp1313
I57
aI13
aa(lp1314
I5
aI35
aI5
aI10
aa(lp1315
I1
aI1
aa(lp1316
I164
aI1
aI8
aa(lp1317
I1
aI243
aI1
aI47
aI57
aI1
aa(lp1318
I1
aI58
aI1
aI1
aI1
aa(lp1319
I1
aI26
aI25
aI93
aI1
aI11
aI101
aI205
aa(lp1320
I22
aI379
aI389
aI53
aI29
aa(lp1321
I1
aI1
aI110
aI10
aa(lp1322
I4
aI72
aI31
aI21
aI110
aI69
aa(lp1323
I1
aI58
aI1
aI1
aI1
aa(lp1324
I1
aI543
aI145
aI545
aI7
aI1
aI2
aa(lp1325
I507
aI7
aI145
aI545
aI7
aI4
aI48
aI1
aa(lp1326
I525
aI100
aI4
aI1
aa(lp1327
I193
aI221
aI534
aI233
aI403
aI3
aa(lp1328
I775
aI53
aI232
aa(lp1329
I93
aI39
aI383
aI1
aI1
aI172
aI1
aa(lp1330
I92
aI26
aI1
aI76
aa(lp1331
I721
aa(lp1332
I4
aI14
aI1
aI120
aI2
aa(lp1333
I14
aI275
aI74
aI3
aI598
aI1
aI8
aa(lp1334
I1
aI724
aI84
aI34
aI126
aI5
aI615
aa(lp1335
I44
aI121
aI1
aI677
aI2
aI666
aI8
aa(lp1336
I55
aI1
aI9
aI860
aI38
aa(lp1337
I1
aI1
aI873
aI76
aa(lp1338
I1
aI25
aI3
aI1
aI1
aI394
aI136
aa(lp1339
I1
aI1
aa(lp1340
I327
aI26
aI1
aI1
aI1
aI3
aI26
aI1
aa(lp1341
I56
aI38
aI1
aI233
aI477
aa(lp1342
I596
aI157
aI596
aI157
aa(lp1343
I341
aI2
aI12
aI16
aI15
aI1
aI3
aa(lp1344
I15
aI568
aI2
aI29
aI81
aI1
aI485
aa(lp1345
I677
aI106
aI1
aa(lp1346
I44
aI121
aI1
aI677
aI2
aI666
aI8
aa(lp1347
I1
aI4
aI79
aI1
aI14
aI86
aI1
aa(lp1348
I6
aI117
aI1
aa(lp1349
I657
aI25
aI1
aI10
aa(lp1350
I316
aI37
aa(lp1351
I1
aI665
aa(lp1352
I156
aI556
aI2
aI1
aI1
aa(lp1353
I729
aI1
aI277
aI65
aI1
aa(lp1354
I1
aI782
aI38
aa(lp1355
I1
aI1
aI1
aa(lp1356
I5
aI1
aI69
aI1
aa(lp1357
I19
aI14
aI1
aI188
aI1
aI8
aa(lp1358
I1
aI7
aI37
aI669
aI2
aa(lp1359
I5
aI48
aI1
aI669
aI10
aa(lp1360
I636
aI20
aI13
aa(lp1361
I309
aI1
aI117
aI25
aI123
aI1
aa(lp1362
I4
aI31
aI138
aI5
aI7
aI9
aI1
aI10
aa(lp1363
I24
aI11
aI547
aI780
aa(lp1364
I1
aa(lp1365
I41
aI170
aa(lp1366
I214
aI1
aI147
aa(lp1367
I16
aI135
aI29
aI136
aI3
aI28
aI216
aI1
aa(lp1368
I1
aI136
aI2
aI29
aI14
aI71
aI3
aa(lp1369
I7
aI6
aI7
aI6
aI9
aI2
aa(lp1370
I117
aI206
aI3
aI186
aI54
aI249
aI216
aa(lp1371
I300
aI1
aI1
aI712
aa(lp1372
I1
aI4
aI1
aI4
aI39
aI107
aI1
aI12
aa(lp1373
I73
aI1
aI3
aI6
aa(lp1374
I1
aI275
aI92
aI46
aI358
aa(lp1375
I1
aI1
aI2
aI191
aI1
aI423
aI34
aI375
aa(lp1376
I257
aI1
aI3
aa(lp1377
I786
aI707
aI6
aI422
aI251
aI103
aa(lp1378
I108
aI5
aI251
aI150
aI239
aI4
aa(lp1379
I1
aI1
aI251
aI6
aI20
aI1
aa(lp1380
I103
aI59
aa(lp1381
a(lp1382
I39
aI1
aI517
aI179
aI726
aa(lp1383
I1
aI798
aI28
aI614
aa(lp1384
I4
aI683
aI3
aI407
aI200
aI854
aa(lp1385
I19
aI1
aI15
aI1
aI3
aa(lp1386
I179
aI615
aI77
aI1
aI29
aI3
aa(lp1387
I1
aI37
aI1
aI1
aa(lp1388
I1
aI3
aa(lp1389
I1
aI750
aI1
aI73
aI21
aI1
aa(lp1390
I114
aI285
aI413
aI2
aI1
aI575
aI2
aI1
aa(lp1391
I4
aI2
aI1
aI847
aI68
aI597
aI67
aI21
aI437
aI3
aI13
aa(lp1392
I154
aI1
aI233
aI1
aa(lp1393
I219
aI11
aI204
aa(lp1394
I1
aa(lp1395
I1
aI92
aa(lp1396
I202
aI192
aI1
aI517
aI2
aa(lp1397
I614
aI3
aa(lp1398
I180
aI197
aI267
aI465
aI126
aI1
aI1
aI266
aa(lp1399
I1
aI1
aI282
aI1
aI1
aI464
aa(lp1400
I22
aI730
aI557
aI1
aI439
aa(lp1401
I1
aI605
aI125
aI118
aa(lp1402
I796
aI1
aI462
aI2
aI29
aI318
aI436
aI1
aa(lp1403
I699
aI1
aI2
aI29
aI442
aa(lp1404
I1
aI1
aI2
aI29
aI511
aa(lp1405
I1
aI1
aI1
aI1
aI1
aI3
aa(lp1406
I93
aI792
aI2
aI1
aI41
aI24
aI1
aI2
aI6
aa(lp1407
I4
aI57
aI14
aI48
aI1
aI79
aI1
aa(lp1408
I1
aa(lp1409
I1
aI238
aI57
aI617
aI120
aa(lp1410
I1
aI404
aa(lp1411
I489
aa(lp1412
I798
aI1
aI2
aI442
aa(lp1413
I1
aI2
aI445
aI1
aI25
aI3
aI1
aa(lp1414
a(lp1415
I278
aI1
aI70
aI5
aI53
aI211
aI3
aa(lp1416
I1
aI383
aI1
aI16
aI1
aa(lp1417
I1
aI404
aa(lp1418
I600
aI1
aI1
aI1
aa(lp1419
I600
aI1
aI1
aI1
aa(lp1420
I248
aI100
aI1
aI568
aI21
aI1
aa(lp1421
I90
aI462
aI1
aI3
aI97
aa(lp1422
I549
aI7
aI535
aa(lp1423
I549
aI7
aI535
aa(lp1424
I4
aI1
aI462
aI3
aa(lp1425
I1
aI1
aI241
aI1
aI3
aa(lp1426
I683
aI3
aa(lp1427
I535
aI40
aa(lp1428
I44
aI535
aa(lp1429
I798
aI430
aI614
aI3
aa(lp1430
I4
aI1
aI642
aI4
aI1
aI1
aI642
aa(lp1431
I1
aI2
aI445
aI1
aI25
aI3
aI1
aa(lp1432
I1
aI4
aI2
aI1
aI6
aa(lp1433
I4
aI2
aI1
aI7
aI1
aI2
aa(lp1434
I1
aI11
aI1
aI3
aI6
aa(lp1435
I9
aI8
aI387
aI491
aI705
aI512
aa(lp1436
I21
aI822
aI1
aa(lp1437
I1
aI244
aI24
aI1
aI3
aa(lp1438
I15
aI1
aI18
aa(lp1439
I133
aI235
aa(lp1440
I161
aI4
aI1
aI35
aI1
aI6
aa(lp1441
I132
aI15
aI1
aI784
aa(lp1442
I84
aI84
aI84
aI1
aI185
aI277
aa(lp1443
I1
aI847
aI68
aI1
aI1
aI6
aa(lp1444
I15
aI1
aI18
aa(lp1445
I655
aI1
aI30
aI1
aa(lp1446
I120
aI14
aI1
aI1
aI3
aa(lp1447
I235
aa(lp1448
I235
aa(lp1449
I1
aI1
aI550
aa(lp1450
I11
aI112
aI12
aI54
aI26
aI501
aI8
aa(lp1451
I15
aI553
aI20
aI1
aI151
aI1
aI2
aI414
aI18
aa(lp1452
I89
aI1
aa(lp1453
I52
aI1
aI6
aa(lp1454
I277
aI623
aa(lp1455
I144
aI1
aI2
aI89
aI89
aI6
aa(lp1456
I1
aI656
aI58
aI1
aI6
aa(lp1457
I5
aI649
aI173
aI23
aI1
aI2
aI1
aI49
aa(lp1458
I490
aI790
aI18
aa(lp1459
I1
aI62
aa(lp1460
I435
aI344
aI1
aa(lp1461
I5
aI344
aI139
aI344
aI435
aI2
aI273
aI3
aI18
aa(lp1462
I790
aI1
aI1
aa(lp1463
I127
aI6
aI224
aI732
aI163
aI34
aI1
aI1
aI1
aa(lp1464
I85
aI123
aI1
aI2
aI237
aI33
aI301
aI435
aI79
aI505
aa(lp1465
I1
aI13
aa(lp1466
I435
aI139
aI1
aI1
aI1
aa(lp1467
I32
aI26
aI790
aI9
aI10
aa(lp1468
I28
aI1
aI29
aI11
aa(lp1469
I127
aI6
aI224
aI732
aI163
aI34
aI1
aI1
aI1
aa(lp1470
I4
aI16
aI229
aI1
aI51
aI5
aI20
aI84
aI1
aI123
aI428
aa(lp1471
I58
aI1
aI7
aI52
aI58
aI30
aI2
aa(lp1472
I139
aI103
aa(lp1473
I103
aI175
aa(lp1474
I1
aI1
aI647
aa(lp1475
I4
aI12
aI37
aI37
aI14
aI37
aI76
aa(lp1476
I4
aI12
aI37
aI37
aI14
aI37
aI76
aa(lp1477
I769
aI37
aI1
aI615
aI2
aI850
aa(lp1478
I1
aI1
aI605
aI511
aa(lp1479
I135
aI214
aI1
aI578
aI47
aI6
aa(lp1480
I1
aI1
aa(lp1481
I1
aI1
aa(lp1482
I1
aI1
aI87
aI7
aI250
aI190
aI4
aI3
aa(lp1483
I703
aI306
aa(lp1484
I703
aI306
aa(lp1485
I1
aI1
aI87
aI7
aI250
aI190
aI4
aI3
aa(lp1486
I1
aa(lp1487
I457
aI283
aI2
aI718
aa(lp1488
I457
aI283
aI2
aI718
aa(lp1489
I1
aI1
aa(lp1490
I703
aI306
aa(lp1491
I67
aI1
aI1
aI2
aI698
aa(lp1492
I67
aI1
aI1
aI2
aI698
aa(lp1493
I1
aI1
aa(lp1494
I1
aI1
aa(lp1495
I703
aI306
aa(lp1496
I1
aI2
aI1
aa(lp1497
I1
aI1
aI87
aI7
aI250
aI190
aI4
aI3
aa(lp1498
I5
aI35
aI2
aI7
aI36
aI8
aa(lp1499
I537
aI20
aI1
aI19
aI510
aI805
aI3
aa(lp1500
I537
aI20
aI1
aI19
aI510
aI805
aI3
aa(lp1501
I36
aI12
aI288
aa(lp1502
I1
aI1
aI1
aI1
aa(lp1503
I1
aI2
aI1
aa(lp1504
I33
aI395
aI1
aI1
aI866
aI425
aa(lp1505
I204
aI10
aa(lp1506
I1
aI53
aI232
aI369
aI53
aI1
aa(lp1507
I1
aI53
aI232
aI369
aI53
aI1
aa(lp1508
I1
aa(lp1509
I1
aa(lp1510
I1
aI9
aI1
aa(lp1511
I1
aa(lp1512
I1
aI108
aI46
aI220
aI54
aI105
aI710
aI3
aI6
aa(lp1513
I627
aI1
aI581
aI1
aI1
aI18
aa(lp1514
I1
aI1
aI33
aI1
aI77
aI8
aa(lp1515
I104
aI1
aI3
aI287
aI4
aI387
aI1
aa(lp1516
I1
aI1
aI31
aI1
aa(lp1517
I5
aI1
aI7
aI1
aI30
aI2
aa(lp1518
I1
aI2
aI8
aa(lp1519
I180
aI1
aa(lp1520
I37
aI214
aI1
aa(lp1521
I15
aI214
aI102
aa(lp1522
I1
aa(lp1523
I36
aI544
aI1
aI205
aa(lp1524
I1
aI20
aI1
aI1
aI1
aa(lp1525
I392
aI144
aI36
aI91
aa(lp1526
I1
aI23
aI85
aI1
aa(lp1527
I85
aI1
aI11
aa(lp1528
I109
aI350
aI1
aa(lp1529
I1
aI1
aI1
aI442
aa(lp1530
I158
aI4
aI2
aI1
aI16
aI176
aI714
aa(lp1531
I455
aI7
aI232
aI1
aI8
aa(lp1532
I33
aI1
aI11
aI1
aI1
aI3
aa(lp1533
I7
aI232
aI1
aI1
aI200
aI1
aI1
aa(lp1534
I1
aI1
aI1
aI273
aa(lp1535
I1
aI269
aI1
aI1
aI51
aI17
aa(lp1536
I62
aI51
aa(lp1537
I45
aI33
aI197
aI95
aI1
aI1
aI10
aa(lp1538
I1
aI435
aI118
aI2
aI1
aI11
aI274
aa(lp1539
I1
aI175
aa(lp1540
I341
aa(lp1541
I1
aI1
aI32
aI490
aI1
aI1
aa(lp1542
I151
aI1
aI83
aI93
aI333
aI29
aa(lp1543
I5
aI741
aI47
aI741
aa(lp1544
I53
aI29
aI104
aI1
aa(lp1545
I764
aI33
aI1
aI6
aI1
aI103
aa(lp1546
I5
aI1
aI789
aI9
aI21
aI93
aI52
aI1
aa(lp1547
I1
aI8
aI1
aI233
aI147
aI13
aa(lp1548
I455
aI7
aI1
aI519
aI1
aa(lp1549
I123
aI1
aI8
aI464
aI5
aI1
aI353
aI1
aI1
aa(lp1550
I107
aI1
aI8
aa(lp1551
I4
aI41
aI317
aI1
aI1
aa(lp1552
I284
aI26
aI1
aI123
aI26
aI1
aI116
aI2
aI33
aI10
aa(lp1553
I87
aa(lp1554
I549
aI87
aI51
aa(lp1555
I1
aI1
aI17
aa(lp1556
I1
aI70
aI1
aI830
aI68
aa(lp1557
I1
aI5
aI1
aI111
aI1
aa(lp1558
I1
aI11
aI1
aI1
aI11
aI1
aa(lp1559
I4
aI1
aa(lp1560
I581
aI28
aI21
aI1
aI69
aa(lp1561
I5
aI48
aI311
aa(lp1562
I270
aI1
aI2
aI1
aa(lp1563
I97
aI9
aI619
aa(lp1564
I4
aI247
aI2
aI97
aa(lp1565
I21
aI870
aI88
aI103
aa(lp1566
I58
aI1
aa(lp1567
I15
aI1
aI11
aI17
aa(lp1568
I105
aI1
aI127
aI83
aa(lp1569
I7
aI2
aI25
aI1
aI1
aI74
aI76
aa(lp1570
I93
aI35
aI2
aI9
aI1
aa(lp1571
I19
aI52
aI47
aI247
aI3
aa(lp1572
I247
aI7
aI1
aI49
aa(lp1573
I9
aI8
aI41
aI11
aI25
aI740
aI27
aI845
aI3
aa(lp1574
I52
aI26
aI91
aa(lp1575
I340
aI1
aI183
aI1
aI26
aI1
aI23
aI2
aa(lp1576
I67
aI34
aI28
aI118
aI79
aI1
aa(lp1577
I1
aI15
aI13
aI83
aa(lp1578
I202
aI565
aI6
aa(lp1579
I31
aI8
aa(lp1580
I97
aI1
aI4
aI413
aI285
aI17
aa(lp1581
I752
aI384
aI1
aI54
aI1
aa(lp1582
I1
aI440
aI103
aI1
aI770
aa(lp1583
I430
aI27
aI1
aI1
aI1
aa(lp1584
I556
aI1
aI2
aI1
aI314
aI1
aI632
aa(lp1585
I9
aI8
aI1
aI4
aI1
aI3
aa(lp1586
I32
aI773
aI10
aa(lp1587
I4
aI7
aI429
aa(lp1588
I278
aI509
aa(lp1589
I387
aI229
aI247
aI51
aa(lp1590
I30
aI1
aI10
aI538
aa(lp1591
I315
aI315
aa(lp1592
I5
aI1
aI8
aI185
aI1
aI140
aI10
aa(lp1593
I30
aI281
aI76
aa(lp1594
I525
aI247
aI76
aa(lp1595
I1
aI1
aI1
aI5
aI16
aI1
aI10
aI22
aa(lp1596
I1
aa(lp1597
I1
aI1
aa(lp1598
I57
aI100
aI247
aI1
aI88
aI10
aa(lp1599
I21
aI20
aI390
aa(lp1600
I4
aI48
aI123
aI1
aI2
aa(lp1601
I315
aI125
aa(lp1602
I188
aI1
aa(lp1603
I133
aI1
aI1
aI211
aI30
aI247
aI1
aI1
aa(lp1604
I56
aI132
aa(lp1605
I1
aI35
aI2
aI192
aI1
aa(lp1606
I135
aI1
aI67
aI2
aI718
aI156
aI230
aa(lp1607
I19
aI14
aI509
aI53
aI194
aI124
aI92
aI4
aa(lp1608
I30
aI1
aI509
aa(lp1609
I102
aI17
aa(lp1610
I1
aI4
aI197
aI118
aI509
aI7
aI32
aI311
aI2
aa(lp1611
I39
aI1
aI26
aI1
aI1
aI1
aI1
aa(lp1612
I9
aI2
aI13
aI1
aI700
aI10
aI4
aI24
aI85
aI65
aI133
aa(lp1613
I105
aI1
aI127
aI83
aa(lp1614
I15
aI290
aI1
aI11
aa(lp1615
I15
aI290
aI1
aI11
aa(lp1616
I1
aI7
aI98
aI1
aI428
aa(lp1617
I526
aI1
aI2
aI140
aI102
aI63
aa(lp1618
I815
aa(lp1619
I15
aI1
aI10
aI22
aa(lp1620
I505
aI4
aI8
aI1
aI53
aI1
aI1
aa(lp1621
I132
aI1
aI247
aa(lp1622
I815
aa(lp1623
I4
aI54
aI5
aI1
aI3
aa(lp1624
I815
aa(lp1625
I377
aa(lp1626
I93
aI7
aI98
aI1
aI1
aI41
aI1
aa(lp1627
I68
aI2
aI115
aI2
aa(lp1628
I7
aI1
aa(lp1629
I7
aI87
aa(lp1630
I4
aI21
aI35
aI1
aI5
aI861
aI3
aI10
aa(lp1631
I36
aI524
aI318
aI436
aI1
aa(lp1632
I185
aI2
aI1
aI630
aa(lp1633
I9
aI1
aI9
aI1
aI524
aI318
aI436
aI1
aa(lp1634
I27
aI539
aI1
aI1
aa(lp1635
I24
aI1
aI2
aI53
aI538
aa(lp1636
I29
aI16
aI1
aa(lp1637
I5
aI714
aI362
aI10
aa(lp1638
I4
aI352
aI1
aI1
aI242
aa(lp1639
I23
aI7
aI1
aI1
aa(lp1640
I128
aI2
aI361
aa(lp1641
I30
aI486
aI128
aI18
aI464
aI1
aa(lp1642
I510
aI2
aI279
aI32
aI89
aI1
aI18
aa(lp1643
I9
aI553
aI38
aa(lp1644
I1
aI175
aI6
aa(lp1645
I9
aI553
aI38
aa(lp1646
I12
aI56
aI38
aa(lp1647
I5
aI78
aI5
aI1
aI714
aI80
aa(lp1648
I4
aI7
aI1
aI150
aI2
aa(lp1649
I31
aI120
aI2
aI31
aI120
aI2
aa(lp1650
I378
aI156
aI15
aI1
aI2
aa(lp1651
I4
aI2
aI378
aI314
aI16
aI147
aI334
aI6
aa(lp1652
I5
aI117
aI631
aI4
aI1
aa(lp1653
I5
aI34
aI1
aI11
aa(lp1654
I261
aI1
aI411
aI18
aa(lp1655
I45
aI57
aI96
aI1
aI1
aI3
aa(lp1656
I78
aI75
aI138
aI738
aI1
aI115
aI375
aa(lp1657
I87
aI737
aI2
aa(lp1658
I1
aI6
aI1
aI25
aI1
aa(lp1659
I1
aI264
aa(lp1660
I187
aI4
aI14
aI1
aI3
aa(lp1661
I187
aI5
aI14
aI1
aI3
aa(lp1662
I46
aI7
aI1
aI8
aa(lp1663
I77
aI1
aI77
aI1
aa(lp1664
I1
aI2
aI237
aI12
aI1
aI3
aI6
aI1
aa(lp1665
I132
aI75
aI1
aI1
aI41
aI1
aI6
aa(lp1666
I1
aI732
aI1
aI1
aa(lp1667
I1
aI2
aI1
aa(lp1668
I1
aI1
aI1
aI48
aI1
aI86
aI1
aa(lp1669
I503
aI60
aI708
aI64
aa(lp1670
I1
aI1
aI1
aI2
aI1
aa(lp1671
I243
aI1
aI185
aI2
aI1
aI1
aI1
aa(lp1672
I19
aI86
aI1
aI13
aa(lp1673
I1
aa(lp1674
I422
aa(lp1675
I1
aI1
aI258
aI147
aI6
aa(lp1676
I37
aI147
aI1
aI1
aI2
aI18
aa(lp1677
I786
aI52
aI160
aI13
aa(lp1678
I1
aI1
aa(lp1679
I36
aI7
aI386
aI842
aI2
aI10
aa(lp1680
I56
aI2
aI1
aI2
aI1
aI1
aI1
aa(lp1681
I1
aI20
aI1
aI2
aI1
aa(lp1682
I1
aI1
aI810
aI18
aI4
aI405
aI1
aa(lp1683
I176
aI1
aa(lp1684
I5
aI35
aI5
aI1
aI34
aI1
aI1
aa(lp1685
a(lp1686
I701
aI1
aI701
aa(lp1687
I267
aI105
aI31
aI1
aI10
aa(lp1688
I1
aI21
aI111
aI1
aI69
aa(lp1689
I80
aI75
aI111
aI1
aI69
aa(lp1690
a(lp1691
I87
aa(lp1692
I1
aI446
aI2
aI1
aI1
aI1
aI1
aa(lp1693
I108
aI5
aI620
aI733
aI443
aa(lp1694
I220
aI220
aI1
aI29
aI137
aI3
aI1
aa(lp1695
I108
aI5
aI620
aI733
aI443
aa(lp1696
I4
aI11
aI689
aI1
aI767
aI99
aI5
aI11
aI1
aI4
aI190
aI4
aa(lp1697
I1
aI1
aI86
aI3
aa(lp1698
I71
aI753
aI735
aI309
aa(lp1699
I182
aa(lp1700
I337
aI499
aI1
aI24
aI1
aa(lp1701
I4
aI337
aI12
aI124
aI1
aI1
aI6
aa(lp1702
I1
aI1
aI49
aa(lp1703
I5
aI124
aI18
aI49
aa(lp1704
I5
aI7
aI1
aI1
aI1
aI209
aI10
aa(lp1705
I392
aI49
aI14
aI4
aa(lp1706
I19
aI1
aI17
aa(lp1707
I5
aI7
aI4
aI1
aI18
aa(lp1708
I4
aI1
aI11
aI1
aI10
aa(lp1709
I4
aI299
aI5
aI140
aI18
aa(lp1710
I225
aI1
aa(lp1711
I14
aI1
aI624
aI8
aa(lp1712
I1
aI16
aI1
aI1
aa(lp1713
I33
aI237
aI1
aI136
aI54
aI95
aI293
aI42
aa(lp1714
I34
aI149
aI475
aa(lp1715
I1
aI253
aI149
aI10
aa(lp1716
I21
aI1
aI93
aI1
aI108
aa(lp1717
I1
aa(lp1718
I1
aa(lp1719
I1
aI1
aI438
aI1
aI255
aI3
aa(lp1720
I1
aa(lp1721
I34
aI15
aI1
aI2
aI1
aI34
aI15
aI1
aI191
aI1
aa(lp1722
I139
aI1
aI2
aI156
aI834
aI1
aa(lp1723
I1
aI7
aI1
aI1
aa(lp1724
I1
aI348
aI346
aa(lp1725
I54
aI4
aI671
aI40
aa(lp1726
I507
aI39
aI1
aI10
aa(lp1727
I1
aI1
aI1
aI297
aI746
aa(lp1728
I449
aI450
aa(lp1729
I30
aI53
aa(lp1730
I650
aI10
aa(lp1731
I32
aI335
aI98
aI6
aa(lp1732
I1
aI143
aI429
aI694
aI1
aI2
aI92
aI8
aa(lp1733
I182
aI577
aI429
aI577
aI616
aI2
aI1
aa(lp1734
I59
aI1
aI122
aI860
aI1
aa(lp1735
I15
aI515
aI307
aa(lp1736
I38
aI1
aI157
aI3
aI162
aI7
aI122
aI1
aI122
aa(lp1737
I260
aI260
aa(lp1738
I57
aI10
aa(lp1739
I544
aI305
aa(lp1740
I41
aI383
aI9
aI1
aI21
aI1
aI6
aa(lp1741
I23
aI670
aI13
aa(lp1742
I28
aI21
aI789
aa(lp1743
I459
aI1
aI10
aa(lp1744
I616
aI41
aI429
aa(lp1745
I1
aI143
aI429
aa(lp1746
I45
aI1
aa(lp1747
I387
aI279
aa(lp1748
I1
aI10
aa(lp1749
I10
aI1
aI822
aI311
aa(lp1750
I168
aI232
aI159
aa(lp1751
I232
aI159
aI175
aI91
aa(lp1752
I1
aI43
aI122
aI1
aI76
aa(lp1753
I1
aI1
aI23
aI91
aa(lp1754
I225
aI1
aI147
aa(lp1755
I1
aI31
aI1
aI636
aI1
aI10
aa(lp1756
I132
aI4
aI637
aI21
aI1
aa(lp1757
I659
aI394
aI1
aa(lp1758
I1
aI25
aI65
aI66
aI468
aa(lp1759
I98
aI520
aI518
aI65
aa(lp1760
I20
aI4
aI1
aI1
aI2
aI39
aI1
aa(lp1761
I321
aI1
aI599
aa(lp1762
I1
aI5
aI1
aI56
aI4
aI599
aa(lp1763
I4
aI56
aI208
aI8
aa(lp1764
I1
aI7
aI304
aI51
aa(lp1765
I1
aI329
aI748
aI5
aI7
aI1
aa(lp1766
I1
aI43
aI5
aI317
aI356
aI416
aI102
aI761
aa(lp1767
I141
aI356
aI1
aa(lp1768
I1
aI2
aI1
aa(lp1769
I206
aI1
aI1
aa(lp1770
I5
aI221
aI3
aI1
aa(lp1771
I174
aI516
aI33
aI257
aI23
aI18
aa(lp1772
I1
aI1
aI1
aI74
aI118
aa(lp1773
I1
aI1
aI14
aI140
aa(lp1774
I637
aI1
aI198
aa(lp1775
I278
aa(lp1776
I278
aa(lp1777
I4
aI318
aI3
aa(lp1778
I1
aI342
aI550
aa(lp1779
I98
aI470
aa(lp1780
I1
aI2
aI858
aI113
aI8
aI17
aa(lp1781
I1
aI19
aI1
aI314
aI828
aa(lp1782
I1
aI628
aI86
aI1
aI4
aI8
aI83
aa(lp1783
I4
aI1
aI1
aI6
aa(lp1784
I1
aI6
aa(lp1785
I5
aI12
aI1
aI49
aa(lp1786
I52
aI1
aI6
aa(lp1787
I89
aI397
aI76
aI1
aI206
aI181
aa(lp1788
I38
aI179
aI43
aI2
aI233
aI1
aI2
aI3
aa(lp1789
I39
aI359
aI355
aI40
aa(lp1790
I134
aI16
aI20
aI1
aI88
aI264
aI761
aa(lp1791
I766
aI186
aI171
aa(lp1792
I5
aI1
aI1
aI46
aI28
aI1
aI3
aI13
aa(lp1793
I39
aI13
aI21
aI690
aI1
aI2
aa(lp1794
I249
aI136
aI249
aI2
aI1
aI1
aI46
aa(lp1795
I1
aI1
aI6
aa(lp1796
I874
aI33
aI1
aI8
aa(lp1797
I14
aI215
aI17
aa(lp1798
I144
aI250
aa(lp1799
I1
aI1
aI206
aI171
aa(lp1800
I495
aI1
aI39
aI21
aI1
aa(lp1801
I261
aI388
aI1
aI2
aI39
aI1
aa(lp1802
I218
aI5
aI1
aI258
aI10
aa(lp1803
I4
aI364
aI24
aI554
aI17
aa(lp1804
I1
aI1
aI55
aa(lp1805
I172
aI10
aI465
aI1
aa(lp1806
I31
aI27
aI1
aI39
aI1
aI278
aI1
aI113
aa(lp1807
I1
aI1
aI8
aI1
aI1
aI6
aa(lp1808
I1
aI1
aI1
aa(lp1809
I144
aI97
aI261
aI169
aI725
aI1
aI3
aa(lp1810
I1
aI86
aI3
aI254
aI266
aI3
aa(lp1811
I7
aI10
aI19
aI32
aI305
aI6
aI4
aI28
aI48
aI1
aI13
aa(lp1812
I63
aI236
aI676
aI25
aI3
aa(lp1813
I218
aI886
aI186
aI171
aa(lp1814
I1
aI4
aI3
aI1
aa(lp1815
I319
aI74
aI1
aI15
aI413
aI2
aI21
aa(lp1816
I135
aI1
aa(lp1817
I45
aI19
aI14
aI1
aI25
aI498
aa(lp1818
I131
aI40
aI498
aI73
aI772
aI3
aa(lp1819
I886
aI221
aI171
aa(lp1820
I106
aI231
aI6
aa(lp1821
I31
aI24
aI231
aI15
aI664
aI12
aI365
aI335
aa(lp1822
I1
aI1
aa(lp1823
I27
aI1
aI360
aI306
aI808
aI205
aI1
aI7
aI1
aI692
aI2
aa(lp1824
I218
aI186
aI171
aa(lp1825
I114
aI4
aI7
aI24
aI37
aI1
aI2
aI29
aI49
aa(lp1826
I4
aI12
aI572
aI15
aI469
aa(lp1827
I839
aI2
aI41
aI34
aI1
aI1
aI2
aI1
aa(lp1828
I19
aI482
aI319
aI508
aI370
aa(lp1829
I34
aI1
aI2
aa(lp1830
I44
aI6
aI244
aI1
aI36
aI7
aI838
aI3
aa(lp1831
I1
aI4
aI7
aI193
aI80
aI1
aI2
aa(lp1832
I249
aI77
aI212
aI601
aI46
aI469
aa(lp1833
I4
aI364
aI7
aI5
aI1
aI370
aa(lp1834
I1
aI1
aa(lp1835
I5
aI805
aI197
aI46
aI1
aI1
aI2
aI1
aI7
aI775
aa(lp1836
I1
aI571
aI9
aI796
aI6
aa(lp1837
I4
aI261
aI78
aI98
aI16
aI11
aI1
aI1
aa(lp1838
I148
aI1
aI629
aI222
aa(lp1839
I7
aI102
aI106
aI1
aI411
aI9
aa(lp1840
I58
aI558
aI475
aI1
aI1
aI3
aa(lp1841
I45
aI1
aI2
aa(lp1842
I4
aI499
aI2
aa(lp1843
I5
aI1
aI1
aI102
aa(lp1844
I1
aI6
aI63
aa(lp1845
I1
aI1
aI5
aI12
aI34
aI1
aa(lp1846
I218
aI5
aI78
aI1
aI34
aI1
aI10
aa(lp1847
I306
aI28
aI21
aI9
aI41
aI411
aI6
aa(lp1848
I4
aI57
aI101
aI408
aI39
aI48
aI612
aa(lp1849
I25
aI1
aI43
aI1
aa(lp1850
I201
aI1
aI1
aI95
aI1
aa(lp1851
I45
aI4
aI709
aI412
aI1
aI692
aa(lp1852
I4
aI405
aI1
aa(lp1853
I249
aI89
aI1
aa(lp1854
I50
aI13
aa(lp1855
I1
aI20
aI11
aa(lp1856
I130
aI206
aI1
aa(lp1857
I106
aI207
aI369
aI1
aI221
aI8
aa(lp1858
I5
aI1
aI2
aI83
aa(lp1859
I244
aI1
aa(lp1860
I1
aI4
aI54
aI5
aI1
aa(lp1861
I117
aI3
aI117
aI3
aI63
aa(lp1862
I5
aI169
aI4
aI280
aI109
aI49
aI17
aa(lp1863
I1
aI3
aa(lp1864
I401
aI4
aI430
aI279
aI205
aI1
aI119
aI264
aa(lp1865
I839
aI1
aI48
aI1
aI828
aI21
aI2
aa(lp1866
I75
aI879
aa(lp1867
I218
aI186
aI171
aa(lp1868
I5
aI75
aI378
aI4
aI196
aI709
aI1
aI13
aa(lp1869
I218
aI4
aI1
aI2
aI183
aI51
aI17
aa(lp1870
I1
aI346
aI57
aI1
aI206
aI49
aa(lp1871
I1
aI374
aI6
aa(lp1872
I277
aI372
aI3
aI1
aI1
aa(lp1873
I19
aI277
aI372
aI1
aI1
aI760
aa(lp1874
I218
aI186
aI171
aa(lp1875
I44
aI1
aI188
aI9
aI266
aI6
aI28
aI1
aI82
aI1
aa(lp1876
I47
aI3
aI624
aI1
aI14
aI592
aI3
aI28
aa(lp1877
I134
aI16
aI20
aI1
aI88
aI264
aI761
aa(lp1878
I1
aI88
aI264
aI34
aI672
aI1
aI2
aI17
aa(lp1879
I1
aI1
aI20
aI431
aI451
aI51
aI17
aa(lp1880
I5
aI13
aI12
aI271
aI6
aa(lp1881
I44
aI6
aI1
aI2
aI622
aa(lp1882
I347
aI1
aI1
aa(lp1883
I5
aI101
aI423
aI6
aa(lp1884
I167
aI6
aI1
aI6
aI1
aI1
aI6
aa(lp1885
I17
aI134
aI109
aa(lp1886
I1
aI1
aa(lp1887
I4
aI12
aI1
aI106
aI1
aa(lp1888
I1
aI2
aI700
aI192
aI1
aa(lp1889
I477
aI116
aI2
aI90
aI21
aI305
aI147
aI3
aa(lp1890
I161
aI1
aI15
aI1
aI1
aa(lp1891
I44
aI187
aI40
aI24
aI276
aI2
aI154
aa(lp1892
I5
aI12
aI313
aI80
aI275
aI5
aI2
aI53
aI1
aI76
aa(lp1893
I45
aI9
aI8
aa(lp1894
I9
aI8
aI699
aI1
aI1
aI234
aI1
aa(lp1895
I417
aI412
aI1
aI23
aa(lp1896
I1
aI167
aa(lp1897
I4
aI12
aI782
aI66
aa(lp1898
I17
aI1
aI15
aI1
aa(lp1899
I93
aI156
aI24
aI1
aI2
aa(lp1900
I4
aI48
aI173
aI1
aa(lp1901
I1
aI298
aI674
aI1
aI1
aI14
aI140
aa(lp1902
I45
aI219
aI23
aI189
aI6
aa(lp1903
I109
aI1
aI1
aI24
aI686
aI188
aI6
aa(lp1904
I44
aI850
aI9
aI1
aa(lp1905
I421
aI106
aI7
aI417
aI1
aI1
aI3
aa(lp1906
I12
aI663
aI659
aI368
aI14
aI310
aI3
aa(lp1907
I526
aI11
aI78
aI1
aI264
aI3
aa(lp1908
I4
aI261
aI508
aI633
aI218
aI68
aI94
aa(lp1909
I1
aI6
aI74
aI1
aI1
aI80
aI6
aa(lp1910
I52
aI336
aI6
aI4
aI1
aI471
aI11
aI441
aa(lp1911
I29
aI1
aI1
aI2
aa(lp1912
I678
aI80
aI11
aI1
aI39
aI1
aI3
aa(lp1913
I80
aI106
aI52
aI108
aI5
aI382
aI434
aI3
aa(lp1914
I1
aI1
aa(lp1915
I164
aI67
aI27
aI1
aI152
aI1
aI1
aa(lp1916
I4
aI57
aI110
aI1
aI8
aa(lp1917
I4
aI12
aI207
aI650
aa(lp1918
I1
aI59
aI56
aI59
aI41
aI59
aI56
aI71
aa(lp1919
I59
aI56
aI59
aI2
aa(lp1920
I111
aI225
aI3
aa(lp1921
I109
aa(lp1922
I1
aI1
aa(lp1923
I1
aI2
aI4
aI582
aI1
aa(lp1924
I130
aI95
aI4
aI12
aI582
aI1
aa(lp1925
I1
aI665
aI669
aI6
aa(lp1926
I1
aI1
aI1
aI1
aI879
aI13
aa(lp1927
I131
aI110
aI2
aI1
aI1
aI11
aI110
aa(lp1928
I9
aI8
aI4
aI734
aI75
aI1
aI1
aa(lp1929
I80
aI77
aI2
aI198
aI56
aI141
aI16
aI1
aa(lp1930
I19
aI316
aI1
aI6
aI71
aI1
aa(lp1931
I19
aI14
aI1
aI1
aI837
aa(lp1932
I236
aI601
aI80
aI3
aa(lp1933
I1
aI1
aI346
aa(lp1934
I93
aI7
aI1
aI2
aI1
aa(lp1935
I1
aI3
aI20
aI27
aI15
aI86
aI1
aI3
aa(lp1936
I15
aI1
aI1
aI1
aI120
aI2
aI520
aI102
aa(lp1937
I135
aI39
aI1
aI2
aI1
aI76
aa(lp1938
I9
aI8
aI15
aI169
aI37
aI9
aI6
aI1
aa(lp1939
I50
aI532
aI14
aI264
aI17
aa(lp1940
I1
aI43
aI6
aa(lp1941
I1
aI2
aI504
aI1
aI2
aI802
aa(lp1942
I874
aI85
aI43
aI6
aI272
aa(lp1943
I1
aa(lp1944
I110
aI3
aI1
aI1
aa(lp1945
I17
aI46
aI7
aI1
aa(lp1946
I6
aI330
aI1
aI234
aI31
aI294
aI2
aI1
aI8
aI96
aa(lp1947
I17
aI525
aI6
aI525
aI6
aa(lp1948
I44
aI17
aa(lp1949
I806
aI190
aI28
aI1
aa(lp1950
I1
aI4
aI1
aI346
aI97
aa(lp1951
I248
aI561
aI7
aI678
aI1
aI1
aa(lp1952
I561
aI23
aI6
aa(lp1953
I1
aI48
aI2
aI1
aa(lp1954
I39
aI855
aa(lp1955
I308
aI1
aI8
aa(lp1956
I109
aI6
aa(lp1957
I1
aI6
aI55
aa(lp1958
I201
aI774
aI23
aI686
aI6
aa(lp1959
I1
aI181
aI17
aa(lp1960
I5
aI28
aI380
aI1
aI2
aI40
aa(lp1961
I60
aI64
aI1
aa(lp1962
I800
aI1
aI16
aI33
aI1
aI1
aI2
aI6
aa(lp1963
I207
aI340
aI1
aa(lp1964
I165
aI1
aI14
aI33
aI3
aI96
aa(lp1965
I87
aI24
aI554
aI94
aI22
aa(lp1966
I1
aa(lp1967
I17
aI46
aI7
aI1
aa(lp1968
I4
aI514
aI1
aI110
aI47
aI1
aa(lp1969
I389
aI120
aa(lp1970
I164
aI5
aI1
aI126
aI4
aI1
aI83
aa(lp1971
I248
aI1
aI108
aI77
aI336
aI1
aI8
aa(lp1972
I1
aI31
aI34
aI24
aI1
aI18
aa(lp1973
I4
aI27
aI7
aI72
aI275
aI1
aI3
aI10
aa(lp1974
I298
aI847
aI1
aI86
aI2
aI1
aa(lp1975
I43
aI1
aI13
aI32
aI1
aI100
aI23
aI29
aI372
aI49
aa(lp1976
I279
aI72
aI15
aI700
aI65
aI1
aI94
aa(lp1977
I1
aI1
aI8
aa(lp1978
I5
aI72
aI31
aI1
aI70
aI1
aa(lp1979
I1
aI1
aI225
aI1
aI3
aa(lp1980
I118
aI7
aI20
aI84
aI221
aI6
aa(lp1981
I1
aa(lp1982
I179
aI80
aI1
aa(lp1983
I665
aI698
aa(lp1984
I1
aa(lp1985
I4
aI12
aI167
aI6
aa(lp1986
I128
aI24
aI167
aI6
aa(lp1987
I478
aI24
aI167
aI6
aI667
aI1
aI2
aI167
aI6
aa(lp1988
I478
aI23
aI2
aI94
aa(lp1989
I39
aI1
aI6
aI130
aI206
aa(lp1990
I15
aI1
aI6
aa(lp1991
I65
aI2
aI1
aI312
aa(lp1992
I776
aI478
aI41
aI23
aa(lp1993
I776
aI478
aI181
aa(lp1994
I123
aI116
aI128
aI2
aI49
aa(lp1995
I73
aI542
aI5
aI7
aI271
aI2
aa(lp1996
I38
aI31
aI6
aI1
aI68
aI1
aa(lp1997
I4
aI405
aI445
aI1
aI218
aI13
aa(lp1998
I4
aI78
aI218
aI115
aI16
aI348
aI110
aI97
aa(lp1999
I817
aI4
aI276
aI2
aI581
aI572
aI15
aa(lp2000
I1
aI850
aI111
aI1
aI2
aI569
aa(lp2001
I402
aI7
aI1
aI2
aI4
aI14
aI20
aI1
aI6
aa(lp2002
I206
aI3
aI1
aa(lp2003
I128
aI2
aI1
aa(lp2004
I4
aI48
aI445
aI639
aI13
aa(lp2005
I15
aI1
aI3
aI5
aI271
aa(lp2006
I1
aa(lp2007
I469
aI127
aI6
aa(lp2008
I19
aI14
aI4
aI100
aI80
aI268
aI181
aa(lp2009
I144
aI6
aa(lp2010
I4
aI48
aI173
aI1
aa(lp2011
I1
aI1
aI200
aI800
aI156
aI1
aa(lp2012
I50
aI57
aI1
aI3
aa(lp2013
I57
aI2
aI1
aI1
aI1
aI3
aa(lp2014
I144
aI306
aI1
aI2
aI119
aI1
aa(lp2015
I4
aI56
aI1
aI37
aI1
aa(lp2016
I49
aI286
aI25
aI466
aI3
aa(lp2017
I57
aI14
aI466
aI1
aa(lp2018
I1
aI40
aI1
aa(lp2019
I85
aI11
aI1
aI18
aI1
aI877
aI145
aI1
aa(lp2020
I63
aI128
aI7
aI1
aI2
aI49
aa(lp2021
I1
aI1
aa(lp2022
I221
aI75
aI167
aI41
aI15
aI1
aI1
aa(lp2023
I5
aI1
aI128
aI2
aI49
aa(lp2024
I19
aI32
aI43
aI7
aI35
aI2
aI632
aI41
aI1
aI3
aa(lp2025
I1
aa(lp2026
I632
aI1
aI1
aI1
aI99
aI2
aI124
aI1
aa(lp2027
I1
aI23
aI1
aI121
aI34
aI671
aI181
aa(lp2028
I55
aI34
aI6
aa(lp2029
I46
aI460
aI5
aI418
aI27
aI29
aI305
aI6
aa(lp2030
I1
aI639
aI68
aa(lp2031
I1
aa(lp2032
I66
aI106
aI4
aI16
aI692
aI451
aI3
aa(lp2033
I279
aI1
aI457
aI16
aI25
aa(lp2034
I1
aI330
aI1
aI658
aI1
aa(lp2035
I11
aI1
aI39
aI1
aI3
aa(lp2036
I30
aI397
aI166
aa(lp2037
I30
aI166
aa(lp2038
I136
aI23
aI166
aa(lp2039
I359
aI74
aI26
aI1
aI355
aI76
aa(lp2040
I1
aI2
aI1
aI14
aI104
aI1
aa(lp2041
I66
aI58
aI558
aI1
aa(lp2042
I286
aI466
aI3
aa(lp2043
I5
aI2
aI1
aI1
aI51
aI142
aI71
aI160
aI298
aI751
aI8
aa(lp2044
I288
aI207
aI24
aI411
aa(lp2045
I178
aI25
aI3
aI183
aI18
aa(lp2046
I1
aI689
aa(lp2047
I647
aI47
aI1
aa(lp2048
I1
aI1
aI1
aI16
aI9
aI1
aa(lp2049
I360
aI320
aI1
aa(lp2050
I228
aa(lp2051
I278
aI1
aI263
aI228
aa(lp2052
I1
aa(lp2053
I855
aI1
aI159
aI1
aI236
aI1
aa(lp2054
I4
aI1
aI5
aI568
aI2
aI543
aa(lp2055
I121
aI35
aI46
aI314
aI24
aI1
aa(lp2056
I1
aI79
aI1
aI93
aI1
aa(lp2057
I1
aI132
aa(lp2058
I1
aI1
aI1
aa(lp2059
I1
aI1
aI1
aI1
aa(lp2060
I1
aI1
aI1
aI1
aa(lp2061
I1
aI30
aI90
aI15
aI1
aI3
aa(lp2062
I5
aI7
aI68
aI2
aI41
aI115
aI2
aa(lp2063
I130
aI636
aI266
aI9
aI8
aa(lp2064
I5
aI288
aI10
aa(lp2065
I1
aI3
aI8
aa(lp2066
I463
aI99
aI1
aI2
aI91
aI12
aI37
aI9
aI10
aa(lp2067
I11
aI1
aI5
aI15
aI23
aI553
aI406
aI2
aa(lp2068
I5
aI24
aI1
aa(lp2069
I144
aI1
aa(lp2070
I1
aI1
aI1
aI1
aa(lp2071
I4
aI12
aI34
aI1
aI1
aI2
aI1
aa(lp2072
I1
aI26
aI1
aI533
aI23
aI2
aI152
aa(lp2073
I5
aI54
aI46
aI1
aI26
aI1
aI11
aI14
aI1
aa(lp2074
I34
aI1
aI2
aI6
aI22
aa(lp2075
I313
aI108
aI1
aI20
aI46
aI1
aI1
aI26
aI424
aa(lp2076
I1
aI1
aI1
aI3
aI92
aI8
aI309
aa(lp2077
I19
aI465
aI54
aI46
aI1
aI3
aa(lp2078
I853
aI2
aI1
aI1
aI1
aI442
aa(lp2079
I138
aI5
aI853
aI304
aa(lp2080
I1
aI1
aI1
aI1
aI1
aI1
aa(lp2081
I1
aI1
aI52
aI567
aI13
aa(lp2082
I48
aI1
aa(lp2083
I5
aI1
aa(lp2084
I228
aI118
aI21
aI1
aa(lp2085
I17
aI302
aI352
aI853
aa(lp2086
I1
aI49
aa(lp2087
I34
aI828
aa(lp2088
I25
aI1
aI1
aI151
aI1
aI1
aa(lp2089
I5
aI111
aI1
aI3
aI10
aa(lp2090
I1
aI200
aI2
aI1
aa(lp2091
I97
aI1
aI7
aI1
aI1
aI10
aa(lp2092
I127
aI1
aI258
aI1
aI258
aa(lp2093
I1
aI508
aI348
aa(lp2094
I1
aI5
aI1
aa(lp2095
I482
aI5
aI1
aI181
aI473
aI68
aI258
aI13
aa(lp2096
I107
aI473
aI321
aI5
aa(lp2097
I1
aI710
aI660
aI16
aI284
aI3
aI1
aa(lp2098
I301
aI3
aI1
aI37
aI1
aa(lp2099
I57
aI28
aI1
aI10
aa(lp2100
I1
aa(lp2101
I57
aI287
aI490
aI2
aI56
aI10
aI277
aI1
aa(lp2102
I57
aI28
aI1
aI18
aa(lp2103
I1
aI1
aI1
aI11
aI1
aI139
aI150
aI239
aa(lp2104
I5
aI1
aI4
aI598
aI8
aa(lp2105
I1
aI485
aa(lp2106
I1
aI20
aI1
aI295
aI79
aI1
aI2
aa(lp2107
I1
aI1
aI1
aa(lp2108
I1
aI343
aa(lp2109
I1
aI186
aI814
aI3
aa(lp2110
I1
aI4
aI9
aI30
aI1
aI1
aa(lp2111
I23
aI7
aI348
aa(lp2112
I1
aI1
aI567
aa(lp2113
I611
aI26
aI1
aI1
aI502
aI1
aI246
aI1
aa(lp2114
I369
aI9
aI773
aI11
aI193
aI12
aI11
aI1
aa(lp2115
I4
aI1
aI1
aI390
aI128
aa(lp2116
I390
aI7
aI24
aI1
aI263
aI5
aI41
aI1
aa(lp2117
I1
aI227
aI1
aI3
aa(lp2118
I1
aI200
aI1
aI6
aa(lp2119
I1
aI8
aa(lp2120
I1
aa(lp2121
I1
aI7
aI141
aI620
aI515
aI424
aI82
aI624
aa(lp2122
I743
aI31
aa(lp2123
I817
aI267
aI7
aI5
aa(lp2124
I438
aI29
aI127
aI5
aI14
aI395
aI395
aa(lp2125
I4
aI532
aI203
aI1
aI1
aa(lp2126
a(lp2127
I6
aI499
aI36
aI3
aI28
aI145
aI545
aI1
aa(lp2128
I27
aI7
aI15
aI812
aI2
aI29
aa(lp2129
I428
aI1
aI326
aI1
aI73
aI1
aI3
aa(lp2130
I158
aI4
aI154
aI7
aI737
aI2
aa(lp2131
I1
aI1
aa(lp2132
I535
aI1
aI11
aI39
aI1
aI867
aI2
aI18
aa(lp2133
I208
aI1
aI5
aI7
aI291
aI1
aa(lp2134
I39
aI74
aI79
aI397
aI2
aI76
aa(lp2135
I208
aI1
aI5
aI7
aI291
aI1
aa(lp2136
I1
aI1
aa(lp2137
I1
aI1
aI93
aI650
aa(lp2138
I235
aI131
aI1
aI1
aI1
aI43
aa(lp2139
I66
aI556
aI1
aI4
aI8
aI55
aa(lp2140
I1
aI862
aa(lp2141
I1
aI1
aI57
aI41
aI1
aI18
aa(lp2142
I1
aI867
aI1
aa(lp2143
I1
aI1
aI57
aI41
aI1
aI18
aa(lp2144
I705
aI1
aI1
aI621
aa(lp2145
I639
aI68
aa(lp2146
I1
aI1
aI3
aI16
aa(lp2147
I1
aI1
aI1
aI1
aa(lp2148
I5
aI72
aI1
aI3
aa(lp2149
I75
aI1
aa(lp2150
I1
aI1
aI259
aI633
aI38
aa(lp2151
I4
aI14
aI1
aI3
aa(lp2152
I1
aI1
aI7
aI184
aI36
aI270
aI2
aa(lp2153
I307
aI1
aI133
aI1
aI15
aI1
aI38
aa(lp2154
I1
aa(lp2155
I1
aa(lp2156
I506
aI456
aI400
aa(lp2157
I506
aI456
aI400
aa(lp2158
I1
aa(lp2159
I506
aI456
aI400
aa(lp2160
I1
aI7
aI26
aI1
aI6
aa(lp2161
I1
aI1
aI1
aI178
aI43
aI2
aa(lp2162
I506
aI456
aI400
aa(lp2163
I506
aI456
aI400
aa(lp2164
I1
aa(lp2165
I506
aI456
aI400
aa(lp2166
I506
aI456
aI400
aa(lp2167
I506
aI456
aI400
aa(lp2168
I7
aI15
aI880
aI670
aI124
aI1
aI2
aI8
aa(lp2169
I4
aI11
aI643
aI67
aI1
aI1
aI113
aI2
aa(lp2170
I1
aI1
aI82
aI1
aI1
aI348
aI82
aI1
aa(lp2171
I129
aI180
aI276
aI2
aI29
aa(lp2172
I1
aI53
aI1
aI2
aI1
aa(lp2173
I341
aI2
aI191
aI90
aI15
aI423
aI3
aa(lp2174
I4
aI12
aI81
aI1
aI129
aa(lp2175
I129
aI180
aI276
aI2
aI29
aa(lp2176
I1
aI7
aI1
aI2
aI1
aa(lp2177
I444
aI1
aI1
aI2
aI1
aI388
aI1
aa(lp2178
I574
aI111
aI1
aI445
aI2
aI511
aa(lp2179
I1
aI2
aI1
aI1
aa(lp2180
I1
aI102
aa(lp2181
I68
aI2
aI115
aI2
aa(lp2182
I775
aI6
aa(lp2183
I67
aI16
aI33
aI1
aI1
aI1
aI3
aa(lp2184
I21
aI1
aI1
aI14
aI127
aI3
aa(lp2185
I93
aI43
aI1
aI1
aI2
aa(lp2186
I5
aI20
aI1
aI288
aI18
aa(lp2187
I1
aI42
aI1
aa(lp2188
I1
aI1
aI7
aI670
aI1
aI6
aa(lp2189
I1
aI1
aa(lp2190
I5
aI238
aI15
aI831
aI10
aa(lp2191
I15
aI831
aI11
aI71
aI1
aI880
aa(lp2192
I4
aI213
aI15
aI1
aI1
aa(lp2193
I1
aI1
aI5
aI2
aI1
aI1
aa(lp2194
I23
aI1
aI6
aa(lp2195
I93
aI43
aI1
aI1
aI2
aa(lp2196
I5
aI27
aI127
aI6
aI277
aI1
aI95
aa(lp2197
I1
aI3
aI7
aI1
aa(lp2198
I1
aI4
aI1
aI1
aI194
aI6
aa(lp2199
I58
aI251
aI6
aa(lp2200
I1
aI251
aI6
aI22
aa(lp2201
I149
aI10
aI1
aa(lp2202
I1
aI20
aI84
aI1
aI1
aI1
aI13
aa(lp2203
I4
aI405
aI1
aI1
aI105
aI1
aa(lp2204
I67
aI112
aI8
aI19
aI606
aI74
aI4
aa(lp2205
I1
aI322
aI1
aa(lp2206
I1
aI1
aI6
aa(lp2207
I1
aI569
aI18
aa(lp2208
I1
aI775
aI52
aI336
aI6
aa(lp2209
I608
aI424
aI411
aa(lp2210
I7
aI885
aI86
aI41
aI666
aI727
aI6
aa(lp2211
I1
aI7
aI1
aI31
aI1
aI8
aa(lp2212
I1
aI1
aI2
aI1
aI17
aa(lp2213
I296
aI137
aa(lp2214
I296
aI47
aa(lp2215
I411
aa(lp2216
I85
aI54
aI26
aI461
aI666
aI10
aa(lp2217
I793
aI39
aI26
aI1
aa(lp2218
I1
aI90
aI1
aI1
aI3
aa(lp2219
I4
aI78
aI832
aI2
aI1
aI1
aI1
aI280
aI1
aa(lp2220
I1
aI1
aI1
aI70
aI77
aI18
aa(lp2221
I415
aa(lp2222
I4
aI12
aI1
aI17
aa(lp2223
I1
aa(lp2224
I4
aI1
aI1
aI12
aI473
aa(lp2225
I9
aI109
aI6
aI62
aa(lp2226
I240
aI1
aa(lp2227
I1
aI1
aI1
aI1
aa(lp2228
I1
aI1
aI6
aI22
aa(lp2229
I1
aI1
aa(lp2230
I240
aa(lp2231
I16
aI1
aI47
aI3
aI1
aI17
aa(lp2232
I1
aI1
aI1
aI1
aI1
aa(lp2233
I1
aI1
aa(lp2234
I1
aI7
aI1
aI263
aa(lp2235
I48
aI1
aI6
aI48
aI1
aI1
aI188
aI6
aa(lp2236
I130
aI4
aI1
aI1
aI695
aI5
aI83
aa(lp2237
I258
aI452
aI695
aI4
aI83
aa(lp2238
I24
aI1
aI81
aa(lp2239
I5
aI119
aI1
aI4
aI1
aI297
aI354
aI25
aa(lp2240
I4
aI1
aI2
aI318
aI3
aa(lp2241
I281
aI125
aI5
aa(lp2242
I453
aI30
aI1
aa(lp2243
I125
aI30
aI281
aa(lp2244
a(lp2245
I42
aI17
aa(lp2246
I125
aI30
aI281
aa(lp2247
I1
aI130
aI93
aa(lp2248
I30
aI281
aI250
aI79
aI1
aI6
aa(lp2249
I50
aI19
aI39
aI1
aa(lp2250
I393
aI5
aI500
aI365
aI664
aI3
aa(lp2251
I1
aI12
aI100
aI68
aI529
aI152
aI466
aI51
aa(lp2252
I162
aI430
aI5
aI74
aI277
aI7
aI20
aI1
aI94
aa(lp2253
I4
aI589
aI166
aI475
aI21
aI437
aI46
aI3
aa(lp2254
I50
aI15
aI1
aI54
aI526
aI103
aI66
aa(lp2255
I1
aI5
aI2
aI1
aI1
aI3
aa(lp2256
I5
aI20
aI609
aI23
aI1
aa(lp2257
I17
aa(lp2258
I1
aI2
aI1
aI389
aI131
aI25
aI10
aa(lp2259
I25
aI1
aI311
aI212
aI1
aa(lp2260
I25
aI1
aI6
aa(lp2261
I5
aI20
aI609
aI23
aI1
aa(lp2262
I1
aI1
aI1
aI241
aI1
aa(lp2263
I11
aI25
aI1
aI86
aa(lp2264
I553
aI1
aI1
aa(lp2265
I185
aI778
aI2
aa(lp2266
I1
aI68
aI2
aI716
aI7
aI375
aI1
aI1
aa(lp2267
I1
aI2
aI1
aI28
aI839
aI1
aI1
aI1
aI6
aa(lp2268
I516
aI1
aa(lp2269
I1
aI2
aI29
aI12
aI126
aI1
aI32
aa(lp2270
I5
aI72
aI31
aI307
aa(lp2271
I340
aI116
aI6
aI35
aI137
aI14
aI1
aI464
aI137
aa(lp2272
I1
aI1
aI10
aa(lp2273
I825
aI1
aI119
aI71
aI107
aI49
aa(lp2274
I854
aI111
aI1
aI47
aI5
aI298
aI642
aa(lp2275
I5
aI27
aI1
aI176
aI6
aI17
aa(lp2276
I104
aI638
aI111
aI1
aa(lp2277
I1
aI32
aI168
aa(lp2278
I89
aI62
aa(lp2279
I347
aI222
aa(lp2280
I39
aI24
aI347
aI4
aI286
aI149
aI10
aI463
aa(lp2281
I4
aI178
aI160
aI26
aI1
aI134
aI16
aI347
aa(lp2282
I44
aI87
aI24
aI347
aI4
aI14
aI24
aI1
aa(lp2283
I17
aI27
aI124
aI1
aI2
aI1
aa(lp2284
I4
aI7
aI5
aI607
aI10
aa(lp2285
I5
aI1
aI4
aI14
aI607
aI6
aa(lp2286
I1
aI3
aI223
aI1
aI99
aI40
aa(lp2287
I7
aI5
aI197
aI2
aI6
aa(lp2288
I4
aI7
aa(lp2289
I1
aI6
aI22
aa(lp2290
I1
aI5
aI78
aI13
aI22
aa(lp2291
I67
aI156
aI881
aI1
aa(lp2292
I1
aI33
aI18
aI22
aa(lp2293
I19
aI28
aI130
aI23
aa(lp2294
I1
aa(lp2295
I423
aI11
aI156
aI15
aI1
aI10
aa(lp2296
I5
aI494
aI214
aI13
aa(lp2297
I1
aa(lp2298
I260
aa(lp2299
I300
aI14
aI1
aI3
aa(lp2300
I84
aI2
aa(lp2301
I9
aI8
aI5
aI101
aI243
aI1
aI152
aI2
aa(lp2302
I156
aI769
aI1
aI1
aI733
aI30
aI733
aI25
aa(lp2303
I502
aI33
aa(lp2304
I124
aI92
aI4
aI4
aI12
aI25
aa(lp2305
I1
aI9
aI2
aa(lp2306
I1
aI29
aI2
aI45
aa(lp2307
I139
aI150
aI239
aa(lp2308
I1
aI377
aI64
aI122
aa(lp2309
I4
aI163
aI553
aI26
aI283
aI476
aa(lp2310
I814
aa(lp2311
I1
aI100
aI212
aI238
aI1
aI18
aa(lp2312
I5
aI494
aI52
aI16
aI104
aI1
aa(lp2313
I7
aI4
aI2
aI618
aI513
aI685
aI1
aI47
aI80
aI3
aa(lp2314
I870
aI141
aI34
aI1
aI1
aI70
aI1
aI418
aa(lp2315
I1
aI5
aI1
aI1
aa(lp2316
I5
aI73
aI1
aI3
aa(lp2317
I7
aI4
aI2
aI618
aI513
aI685
aI1
aI47
aI80
aI3
aa(lp2318
I421
aI1
aI18
aa(lp2319
I4
aI1
aI82
aI5
aI1
aI3
aI18
aa(lp2320
I1
aa(lp2321
I350
aI117
aa(lp2322
I235
aa(lp2323
I4
aI825
aI178
aI567
aI27
aI751
aI237
aI23
aI91
aa(lp2324
I6
aI38
aI472
aI81
aI1
aa(lp2325
I825
aI4
aI39
aI1
aa(lp2326
I44
aI6
aI1
aI1
aa(lp2327
I1
aI73
aI584
aI3
aa(lp2328
I1
aa(lp2329
I5
aI28
aI21
aI4
aI86
aI13
aa(lp2330
I27
aI16
aI111
aI5
aI1
aI3
aI1
aa(lp2331
I161
aI647
aI200
aI1
aa(lp2332
I164
aI1
aI8
aa(lp2333
I246
aI483
aI7
aI4
aI2
aI246
aI252
aa(lp2334
I228
aa(lp2335
I4
aI7
aI583
aI2
aI5
aI7
aI1
aI10
aa(lp2336
I31
aI6
aI22
aa(lp2337
I1
aI3
aI165
aa(lp2338
I1
aa(lp2339
I1
aI267
aI5
aI11
aI1
aI8
aa(lp2340
I158
aI1
aI7
aI1
aI1
aa(lp2341
I1
aI10
aa(lp2342
I45
aI1
aI12
aI24
aI185
aI1
aa(lp2343
I1
aI16
aI1
aa(lp2344
I81
aI6
aa(lp2345
I1
aI1
aI18
aI17
aa(lp2346
I1
aa(lp2347
I59
aI320
aI86
aI604
aa(lp2348
I1
aI39
aI92
aI3
aI606
aI1
aa(lp2349
I1
aI6
aI179
aI92
aI141
aI13
aa(lp2350
I272
aI182
aa(lp2351
I67
aI793
aI432
aI664
aI20
aI1
aI2
aI29
aa(lp2352
I1
aI41
aI1
aI6
aI22
aa(lp2353
I20
aI1
aI2
aI237
aI329
aI7
aI681
aa(lp2354
I1
aI37
aI1
aI30
aI818
aI2
aI131
aI38
aa(lp2355
I37
aI8
aI537
aI1
aI71
aa(lp2356
I1
aI1
aI3
aa(lp2357
I22
aI1
aI92
aI101
aI1
aI10
aa(lp2358
I50
aI4
aI1
aI1
aa(lp2359
I1
aI476
aI16
aI11
aI1
aI172
aI1
aa(lp2360
I309
aI5
aI73
aI1
aI3
aa(lp2361
I5
aI412
aI333
aI327
aa(lp2362
I1
aI1
aa(lp2363
I103
aI59
aI7
aI1
aI234
aa(lp2364
I5
aI227
aI2
aI49
aa(lp2365
I795
aI1
aI56
aI1
aI11
aI779
aI1
aa(lp2366
I1
aI1
aI7
aI198
aa(lp2367
I163
aI34
aI1
aa(lp2368
I7
aI74
aI1
aa(lp2369
I9
aI8
aI659
aI5
aI2
aI846
aa(lp2370
I1
aa(lp2371
I4
aI405
aa(lp2372
I15
aI1
aI351
aa(lp2373
I1
aI8
aa(lp2374
I333
aI327
aa(lp2375
I1
aI1
aI327
aI10
aa(lp2376
I1
aI47
aa(lp2377
I1
aI1
aI163
aI1
aa(lp2378
I1
aI295
aI559
aI226
aI22
aa(lp2379
I4
aI7
aI1
aa(lp2380
I1
aI1
aI42
aa(lp2381
I5
aI1
aI5
aI7
aI26
aI1
aI1
aa(lp2382
I9
aa(lp2383
I57
aI20
aI1
aI1
aI49
aa(lp2384
I672
aI251
aI1
aa(lp2385
I1
aI1
aI8
aa(lp2386
I1
aI215
aI11
aa(lp2387
I267
aI135
aI1
aI2
aI1
aI10
aa(lp2388
I1
aI7
aI1
aI1
aI2
aI10
aa(lp2389
I1
aI215
aI11
aa(lp2390
I1
aI6
aa(lp2391
I1
aI686
aa(lp2392
I50
aI62
aI8
aI1
aa(lp2393
I1
aI1
aI1
aI350
aa(lp2394
I6
aI5
aI7
aI20
aI281
aI41
aI300
aI6
aa(lp2395
I4
aI495
aI106
aI48
aI25
aI2
aa(lp2396
a(lp2397
I17
aI7
aI2
aa(lp2398
I5
aI75
aI1
aa(lp2399
I1
aI3
aI440
aI1
aI8
aI22
aa(lp2400
I399
aI1
aa(lp2401
I1
aI1
aI346
aI678
aa(lp2402
I256
aI68
aI1
aI1
aI137
aa(lp2403
I1
aI763
aa(lp2404
I402
aI256
aI1
aI7
aI1
aa(lp2405
I307
aI1
aI13
aa(lp2406
I721
aI4
aI78
aI1
aI101
aa(lp2407
I5
aI568
aI101
aI256
aI10
aa(lp2408
I31
aI473
aI6
aa(lp2409
I9
aI8
aI61
aI60
aI64
aI61
aa(lp2410
I15
aa(lp2411
I361
aI1
aa(lp2412
I4
aI372
aI71
aI3
aI12
aI1
aI2
aI199
aI3
aa(lp2413
I570
aI16
aI1
aI494
aI2
aa(lp2414
I5
aI645
aI1
aI3
aI1
aI1
aa(lp2415
I14
aI53
aI5
aI331
aa(lp2416
I114
aI196
aI53
aI1
aI844
aa(lp2417
I114
aI196
aI53
aI1
aI844
aa(lp2418
I874
aI15
aI1
aa(lp2419
I1
aI43
aI1
aa(lp2420
I1
aI294
aI9
aa(lp2421
I4
aI1
aI1
aa(lp2422
I5
aI1
aI80
aI598
aa(lp2423
I73
aI1
aI3
aI1
aI1
aI223
aI1
aa(lp2424
I208
aI4
aI124
aI1
aI1
aI459
aI140
aI10
aa(lp2425
I1
aI86
aI3
aa(lp2426
I58
aI747
aa(lp2427
I96
aI31
aa(lp2428
I59
aa(lp2429
I81
aI105
aI1
aa(lp2430
I240
aa(lp2431
I1
aI827
aI1
aI1
aa(lp2432
I1
aI1
aI1
aI827
aa(lp2433
I121
aI7
aI1
aI1
aI1
aI2
aI8
aa(lp2434
I704
aI2
aa(lp2435
I1
aI79
aI2
aI1
aa(lp2436
I1
aI59
aa(lp2437
I704
aI2
aa(lp2438
I4
aI12
aI704
aI2
aa(lp2439
I1
aI79
aI2
aI1
aa(lp2440
I1
aI1
aa(lp2441
I1
aI7
aI360
aI26
aI424
aa(lp2442
I4
aI1
aI2
aa(lp2443
I121
aI106
aI21
aI466
aa(lp2444
I5
aI65
aI3
aI18
aa(lp2445
I65
aI77
aI151
aI77
aI372
aI77
aa(lp2446
I1
aI451
aI53
aI232
aI1
aI6
aa(lp2447
I213
aI468
aI9
aI726
aI38
aa(lp2448
I328
aI2
aI1
aa(lp2449
I93
aI1
aI47
aI29
aI25
aI420
aI1
aI3
aI166
aa(lp2450
I457
aI28
aI107
aI11
aI1
aa(lp2451
I1
aI1
aI41
aI1
aI9
aa(lp2452
I778
aI2
aI1
aI2
aI9
aI476
aa(lp2453
I390
aI476
aI15
aa(lp2454
I4
aI78
aI77
aI7
aa(lp2455
I481
aI70
aI882
aI1
aa(lp2456
I1
aI882
aI1
aI20
aI1
aa(lp2457
I1
aI227
aa(lp2458
I1
aa(lp2459
I1
aI7
aI26
aI781
aa(lp2460
I158
aa(lp2461
I488
aI128
aI3
aa(lp2462
I19
aI15
aI23
aa(lp2463
I5
aI444
aI1
aI14
aI1
aI1
aI1
aI3
aa(lp2464
I390
aI43
aI1
aI2
aI470
aI339
aa(lp2465
I882
aI1
aI1
aI2
aa(lp2466
I4
aI624
aI1
aI1
aI4
aI31
aI538
aa(lp2467
I12
aI33
aI1
aI26
aI494
aI166
aa(lp2468
I9
aI6
aa(lp2469
I1
aI1
aI84
aI163
aI342
aa(lp2470
I1
aI1
aa(lp2471
I121
aI100
aI141
aI427
aI34
aI378
aI13
aa(lp2472
I551
aI126
aI46
aI1
aI601
aI46
aI10
aa(lp2473
I1
aI250
aI69
aa(lp2474
I5
aI32
aI1
aI517
aa(lp2475
I5
aI32
aI1
aI517
aa(lp2476
I179
aI851
aI13
aa(lp2477
I19
aI14
aI1
aI1
aa(lp2478
I1
aI3
aI61
aI60
aI64
aI61
aa(lp2479
I166
aI1
aI313
aI1
aI1
aa(lp2480
I1
aI23
aI60
aI61
aI64
aa(lp2481
I178
aI145
aI3
aI26
aI1
aI836
aI1
aa(lp2482
I1
aI1
aI61
aI60
aI64
aI61
aa(lp2483
I282
aI1
aI1
aI3
aa(lp2484
I9
aI1
aa(lp2485
I1
aI226
aI5
aI143
aI266
aI1
aI8
aa(lp2486
I1
aI4
aI2
aI1
aI6
aa(lp2487
I1
aa(lp2488
I646
aa(lp2489
I1
aI669
aI73
aI1
aa(lp2490
I1
aI52
aI155
aI1
aI82
aI1
aa(lp2491
I1
aI8
aI476
aa(lp2492
I1
aa(lp2493
I142
aI110
aa(lp2494
I851
aI3
aa(lp2495
I9
aI8
aa(lp2496
I1
aI65
aI1
aI13
aa(lp2497
I1
aI2
aa(lp2498
I73
aI1
aI3
aa(lp2499
I55
aI1
aa(lp2500
I1
aI10
aI22
aa(lp2501
I9
aI8
aI4
aI1
aI1
aI3
aa(lp2502
I190
aI7
aI618
aI454
aI350
aa(lp2503
I87
aI7
aI35
aI2
aI392
aI13
aa(lp2504
I1
aI377
aa(lp2505
I131
aI1
aI4
aI2
aI1
aI1
aa(lp2506
I1
aI1
aI331
aI9
aI1
aa(lp2507
I92
aI1
aI1
aI1
aI18
aI22
aa(lp2508
I1
aI7
aI1
aI47
aI1
aI725
aI18
aI4
aI1
aI3
aa(lp2509
I27
aI1
aI812
aI176
aI10
aa(lp2510
I92
aI1
aI1
aI1
aI18
aI22
aa(lp2511
I271
aa(lp2512
I1
aI66
aa(lp2513
I84
aI236
aI1
aI11
aI255
aI3
aa(lp2514
I816
aI334
aa(lp2515
I1
aI4
aI257
aI5
aI1
aa(lp2516
I639
aa(lp2517
I72
aI157
aI3
aa(lp2518
I591
aI1
aI7
aI271
aI10
aa(lp2519
I1
aa(lp2520
I294
aI1
aI346
aI1
aI7
aI1
aa(lp2521
I1
aI460
aI120
aI2
aI41
aI1
aI8
aa(lp2522
I1
aI334
aa(lp2523
I1
aI1
aa(lp2524
I879
aI3
aa(lp2525
I45
aI90
aI349
aI47
aI1
aI3
aI10
aa(lp2526
I27
aI7
aI431
aI326
aI1
aI10
aa(lp2527
I158
aI32
aI1
aI13
aa(lp2528
I45
aI27
aI7
aI631
aI4
aI41
aI1
aI4
aI13
aa(lp2529
I1
aI786
aI96
aI12
aI1
aI3
aa(lp2530
I37
aI1
aI8
aa(lp2531
I479
aa(lp2532
I1
aI176
aI172
aI812
aI1
aI176
aI6
aa(lp2533
I66
aI183
aI89
aI136
aa(lp2534
I1
aI7
aI271
aa(lp2535
I9
aI8
aI54
aI1
aI1
aI8
aa(lp2536
I20
aI84
aI690
aI5
aa(lp2537
I238
aI115
aI402
aI1
aI1
aa(lp2538
I5
aI54
aI29
aI464
aI26
aI1
aI255
aI3
aa(lp2539
I5
aI112
aI4
aa(lp2540
I1
aI1
aa(lp2541
I162
aI134
aI1
aI16
aI1
aI88
aI1
aI13
aa(lp2542
I351
aI4
aI475
aI21
aI748
aI69
aI1
aI3
aa(lp2543
I1
aI1
aI1
aI1
aI1
aa(lp2544
I673
aI207
aI7
aI8
aa(lp2545
I391
aI124
aI23
aa(lp2546
I4
aI1
aI101
aI153
aI88
aI1
aI1
aI610
aI386
aI6
aa(lp2547
I305
aI3
aI6
aa(lp2548
I816
aa(lp2549
I9
aI8
aI1
aa(lp2550
I28
aI500
aI1
aI30
aa(lp2551
I115
aI2
aI184
aI36
aI15
aI23
aI147
aI6
aa(lp2552
I406
aI199
aI6
aa(lp2553
I1
aI811
aI71
aI123
aI71
aI1
aa(lp2554
I1
aI3
aa(lp2555
I35
aI2
aI9
aa(lp2556
I35
aI2
aI9
aa(lp2557
I52
aI28
aI11
aI319
aI47
aI1
aa(lp2558
I1
aI42
aI1
aI1
aI1
aa(lp2559
I384
aI384
aa(lp2560
I201
aI4
aI34
aI1
aI2
aa(lp2561
I548
aI3
aI194
aI695
aI67
aa(lp2562
I341
aI1
aa(lp2563
I341
aI1
aa(lp2564
I66
aI114
aI592
aI1
aI16
aI81
aI1
aI2
aI1
aa(lp2565
I1
aI1
aI396
aa(lp2566
I384
aI1
aa(lp2567
I92
aI214
aI1
aI657
aI445
aI5
aI3
aa(lp2568
I19
aI4
aI82
aI25
aI203
aI3
aa(lp2569
I548
aI3
aI143
aI14
aI1
aI11
aI183
aI3
aI1
aI6
aa(lp2570
I187
aI5
aI37
aI20
aI1
aI7
aI18
aa(lp2571
I85
aI108
aI5
aI1
aI2
aI105
aI220
aI24
aI1
aI10
aa(lp2572
I107
aI423
aa(lp2573
I4
aI12
aI1
aI813
aI3
aI1
aI59
aa(lp2574
I4
aI12
aI1
aI813
aI3
aI1
aI59
aa(lp2575
I1
aI15
aI1
aI1
aI2
aI1
aI10
aa(lp2576
I1
aI9
aI356
aa(lp2577
I377
aa(lp2578
I135
aa(lp2579
I19
aI203
aI8
aI1
aI148
aI34
aI81
aa(lp2580
I1
aI26
aI1
aI6
aa(lp2581
I1
aI26
aI1
aI6
aa(lp2582
I136
aI23
aa(lp2583
I1
aa(lp2584
I374
aI206
aa(lp2585
I374
aI661
aa(lp2586
I5
aI41
aI1
aI10
aa(lp2587
I4
aI581
aI144
aI120
aa(lp2588
I1
aI1
aI2
aI1
aI175
aI533
aa(lp2589
I73
aI207
aI1
aI283
aI3
aI5
aa(lp2590
I1
aI1
aI569
aa(lp2591
I4
aI1
aI3
aa(lp2592
I1
aI1
aI514
aI16
aI1
aI2
aa(lp2593
I233
aI107
aI434
aI3
aa(lp2594
I178
aI287
aI212
aa(lp2595
I1
aI5
aI2
aI1
aa(lp2596
I41
aI1
aI1
aI1
aI8
aa(lp2597
I1
aI86
aI1
aa(lp2598
I770
aa(lp2599
I208
aI1
aa(lp2600
I1
aa(lp2601
I15
aI1
aI65
aI10
aa(lp2602
I196
aI131
aI1
aI689
aI356
aa(lp2603
I4
aI266
aI82
aI15
aI155
aI602
aI10
aa(lp2604
I654
aI1
aa(lp2605
I174
aI1
aI52
aI215
aI1
aa(lp2606
I28
aI21
aI661
aI13
aa(lp2607
I4
aI535
aI1
aI263
aI820
aI65
aI2
aI7
aI1
aa(lp2608
I1
aI1
aI658
aI1
aI6
aa(lp2609
I1
aI2
aa(lp2610
I1
aI1
aI396
aI10
aa(lp2611
I1
aI1
aI75
aI1
aI6
aI1
aI3
aI104
aI593
aI3
aa(lp2612
I1
aI2
aI1
aI5
aI20
aI84
aa(lp2613
I1
aa(lp2614
I571
aI871
aI2
aI1
aI5
aa(lp2615
I1
aI1
aI142
aI593
aI12
aI340
aI1
aI10
aa(lp2616
I21
aI153
aI69
aI1
aI402
aI1
aI15
aI1
aa(lp2617
I252
aI7
aI227
aa(lp2618
I1
aa(lp2619
I1
aa(lp2620
I22
aI791
aI7
aI1
aI11
aI548
aI226
aa(lp2621
I1
aI326
aI1
aI1
aa(lp2622
I5
aI2
aI209
aI70
aI620
aI16
aI24
aa(lp2623
I24
aI98
aa(lp2624
I45
aI24
aI15
aI1
aa(lp2625
I73
aI266
aa(lp2626
I69
aI34
aI43
aa(lp2627
a(lp2628
I127
aa(lp2629
I345
aI7
aI26
aI427
aI2
aI9
aI1
aa(lp2630
I114
aI12
aI21
aI224
aI345
aI1
aI71
aI623
aa(lp2631
I1
aI3
aI7
aI58
aI1
aI17
aa(lp2632
I1
aI1
aa(lp2633
I4
aI1
aI28
aI21
aI425
aI1
aa(lp2634
I52
aI13
aa(lp2635
I288
aI8
aI1
aI1
aa(lp2636
I351
aI195
aa(lp2637
I66
aI1
aI5
aI259
aI2
aa(lp2638
I19
aI606
aI7
aI32
aI768
aI2
aI458
aa(lp2639
I1
aI148
aI34
aI183
aa(lp2640
I4
aI31
aI539
aa(lp2641
I27
aI19
aI4
aI72
aI1
aI3
aa(lp2642
I243
aI303
aI78
aI4
aI7
aI539
aI192
aI197
aa(lp2643
I63
aI332
aa(lp2644
I43
aI5
aI1
aI2
aa(lp2645
I1
aI297
aI766
aa(lp2646
I1
aI453
aI25
aI2
aI6
aa(lp2647
I96
aI30
aI2
aI140
aI1
aI1
aI1
aa(lp2648
I1
aI132
aI5
aI12
aI1
aI10
aa(lp2649
I1
aI449
aa(lp2650
I1
aI397
aI76
aI20
aI311
aI49
aa(lp2651
I12
aI21
aI1
aI100
aI4
aI1
aI2
aa(lp2652
I1
aI1
aa(lp2653
I17
aI9
aI2
aa(lp2654
I162
aI729
aI112
aI2
aa(lp2655
I399
aI16
aI1
aa(lp2656
I17
aI144
aI1
aI1
aa(lp2657
I36
aa(lp2658
I1
aI4
aI1
aI3
aa(lp2659
I45
aI249
aI1
aI3
aa(lp2660
I36
aI17
aI4
aI12
aI1
aa(lp2661
I17
aI1
aI5
aI20
aI303
aI226
aa(lp2662
I244
aI5
aI7
aI1
aI1
aI3
aa(lp2663
I17
aI1
aI5
aI99
aI1
aa(lp2664
I44
aI9
aI13
aI215
aI3
aI40
aa(lp2665
I1
aI5
aI1
aI6
aI622
aI1
aI318
aa(lp2666
I44
aI1
aI16
aI1
aI315
aa(lp2667
I1
aI226
aI332
aa(lp2668
I162
aI729
aI112
aI2
aa(lp2669
I41
aI1
aI317
aI204
aI17
aa(lp2670
I1
aI1
aI7
aI1
aI7
aI8
aa(lp2671
I4
aI12
aI11
aI1
aI536
aa(lp2672
I4
aI2
aI1
aI1
aI17
aa(lp2673
I45
aI401
aI4
aI75
aI365
aI20
aI1
aI27
aa(lp2674
I426
aI40
aI17
aa(lp2675
I132
aI1
aI226
aI622
aa(lp2676
I39
aI39
aI32
aI324
aI38
aa(lp2677
I364
aI16
aI1
aI536
aa(lp2678
I120
aI6
aI324
aI2
aI1
aI119
aI15
aI856
aI65
aa(lp2679
I7
aI40
aI7
aI40
aI19
aI117
aI108
aI856
aI1
aa(lp2680
I210
aI4
aI1
aI100
aI5
aI1
aI2
aI3
aa(lp2681
I1
aI93
aI608
aa(lp2682
I93
aI16
aI1
aI227
aI25
aI3
aI133
aa(lp2683
I1
aI2
aa(lp2684
I11
aI1
aI11
aI1
aa(lp2685
I44
aI38
aI3
aa(lp2686
I1
aI1
aa(lp2687
I1
aa(lp2688
I1
aI4
aI1
aI353
aI3
aa(lp2689
I1
aI4
aI1
aI353
aI3
aI59
aa(lp2690
I15
aI1
aa(lp2691
I6
aa(lp2692
I640
aI1
aI1
aa(lp2693
I9
aI845
aI93
aI1
aa(lp2694
I133
aI503
aI6
aa(lp2695
I503
aI98
aa(lp2696
I329
aI1
aI1
aI34
aI25
aI2
aI623
aa(lp2697
I1
aI1
aI693
aI50
aa(lp2698
I39
aI77
aI48
aI6
aa(lp2699
I1
aI106
aI1
aI258
aI629
aa(lp2700
I1
aI835
aI16
aI70
aI5
aI35
aI788
aa(lp2701
I186
aI260
aI3
aa(lp2702
I260
aI23
aI2
aI389
aI3
aa(lp2703
I28
aI82
aI699
aI10
aa(lp2704
I866
aI6
aa(lp2705
I17
aI33
aI2
aI1
aa(lp2706
I25
aI1
aI7
aI26
aI127
aI2
aI1
aa(lp2707
I1
aI1
aI31
aI10
aa(lp2708
I274
aI274
aa(lp2709
I1
aI1
aa(lp2710
I11
aI310
aI5
aI841
aI270
aI133
aa(lp2711
I50
aI806
aI2
aI111
aI1
aI47
aI841
aI3
aa(lp2712
I72
aI160
aI11
aI152
aI3
aa(lp2713
I19
aI14
aI652
aI88
aI15
aI1
aI3
aI142
aI160
aa(lp2714
I19
aI14
aI652
aI88
aI15
aI1
aI3
aI142
aI160
aa(lp2715
I11
aI310
aI11
aI310
aa(lp2716
I1
aI757
aI4
aI72
aI867
aI3
aI451
aa(lp2717
I1
aI152
aI1
aa(lp2718
I731
aI63
aa(lp2719
I9
aI8
aa(lp2720
I648
aI325
aI1
aa(lp2721
I133
aI1
aa(lp2722
I664
aI1
aI3
aI21
aI1
aI25
aa(lp2723
I676
aI3
aI1
aa(lp2724
I1
aI123
aI1
aI1
aa(lp2725
I43
aI1
aI365
aI160
aI1
aa(lp2726
I25
aI1
aI340
aI77
aI223
aI1
aa(lp2727
I11
aI25
aI52
aI215
aa(lp2728
I6
aI371
aa(lp2729
I49
aI797
aa(lp2730
I6
aI371
aa(lp2731
I1
aI1
aI183
aI3
aa(lp2732
I114
aI4
aI78
aI530
aI1
aI7
aI1
aa(lp2733
I19
aI4
aI1
aI1
aa(lp2734
I17
aI9
aI8
aa(lp2735
I332
aI7
aI32
aI4
aI631
aI5
aI10
aI17
aa(lp2736
I794
aI576
aI2
aI100
aI4
aI268
aa(lp2737
I1
aI85
aI576
aI26
aI1
aI818
aI13
aa(lp2738
I1
aa(lp2739
I17
aI144
aI1
aI1
aa(lp2740
I1
aI270
aI10
aa(lp2741
I1
aa(lp2742
I67
aI211
aI16
aI135
aI36
aI270
aI2
aI35
aa(lp2743
I121
aI35
aI5
aI7
aI54
aI4
aI65
aI41
aI11
aI54
aI8
aa(lp2744
I486
aI179
aI1
aI1
aI1
aI1
aI1
aa(lp2745
I134
aI1
aI289
aI432
aI1
aa(lp2746
I262
aI30
aI486
aI1
aa(lp2747
I194
aI1
aI1
aa(lp2748
I329
aI709
aI14
aI1
aI3
aI5
aI412
aI9
aI6
aa(lp2749
I278
aI1
aa(lp2750
I1
aI16
aI184
aI1
aI77
aI81
aI2
aI270
aI2
aa(lp2751
I179
aI474
aI474
aI810
aI3
aa(lp2752
I184
aI23
aI2
aa(lp2753
I1
aI133
aa(lp2754
a(lp2755
I332
aI807
aI26
aI9
aI638
aI349
aI2
aI35
aa(lp2756
I19
aI14
aI1
aa(lp2757
I762
aa(lp2758
I63
aa(lp2759
I4
aI257
aI5
aa(lp2760
I4
aI7
aI35
aI320
aI1
aI1
aa(lp2761
I4
aI254
aI607
aI4
aI216
aI11
aI265
aa(lp2762
I244
aI27
aI1
aI12
aI216
aI11
aI265
aI3
aa(lp2763
I4
aI1
aI143
aI86
aI3
aI25
aI3
aa(lp2764
I54
aI5
aI1
aI1
aI9
aI8
aa(lp2765
I1
aI4
aI27
aI143
aI1
aa(lp2766
I19
aI1
aI216
aa(lp2767
I27
aI12
aI156
aI4
aI648
aI1
aI166
aa(lp2768
I821
aI787
aI536
aa(lp2769
I4
aI7
aI53
aI33
aI108
aI29
aI65
aI1
aI2
aI29
aI226
aa(lp2770
I486
aI179
aI1
aI1
aI1
aI1
aI1
aa(lp2771
I4
aI1
aI1
aa(lp2772
I821
aI787
aa(lp2773
I321
aI1
aI2
aI14
aI173
aI1
aI2
aI6
aa(lp2774
I762
aI1
aI2
aI12
aI127
aI1
aa(lp2775
I557
aI1
aa(lp2776
I72
aI11
aI324
aI3
aI6
aa(lp2777
I320
aI320
aI152
aI76
aa(lp2778
I57
aI5
aI119
aI153
aI27
aa(lp2779
I1
aI1
aI722
aI14
aI153
aI69
aa(lp2780
I1
aa(lp2781
I72
aI11
aI324
aI3
aI6
aa(lp2782
I6
aI371
aa(lp2783
I1
aa(lp2784
I393
aI134
aI16
aI110
aI171
aI152
aI76
aa(lp2785
I5
aI27
aI7
aI19
aI174
aI1
aI1
aI744
aI29
aI6
aa(lp2786
I17
aI1
aI25
aI1
aI26
aI816
aI17
aa(lp2787
I15
aI4
aI28
aI322
aI18
aa(lp2788
I48
aI70
aI307
aI136
aI2
aI35
aa(lp2789
I19
aI410
aI1
aI8
aa(lp2790
I762
aI131
aI40
aa(lp2791
I66
aa(lp2792
I1
aI1
aI1
aI43
aI640
aI25
aa(lp2793
I419
aa(lp2794
I5
aI1
aI1
aI18
aa(lp2795
I45
aI1
aI765
aa(lp2796
I174
aI211
aI13
aI6
aa(lp2797
I211
aI765
aa(lp2798
I211
aI20
aI496
aa(lp2799
I467
aI876
aI16
aI47
aa(lp2800
I1
aI47
aI18
aI1
aI16
aI843
aI3
aa(lp2801
I843
aI5
aI16
aI1
aI13
aa(lp2802
I5
aI28
aI872
aI16
aI47
aI1
aI3
aI1
aa(lp2803
I1
aI12
aI47
aI2
aI458
aI17
aa(lp2804
I41
aI582
aI1
aI1
aI19
aI65
aa(lp2805
I4
aI1
aI14
aI20
aI1
aI1
aI1
aa(lp2806
a(lp2807
I1
aa(lp2808
I1
aa(lp2809
I4
aI683
aI2
aa(lp2810
I106
aI1
aI308
aI629
aI308
aa(lp2811
I4
aI289
aI1
aI2
aI885
aI1
aI1
aa(lp2812
I4
aI154
aI345
aI2
aI559
aI168
aa(lp2813
I1
aI2
aa(lp2814
I52
aI1
aI1
aI1
aI2
aI1
aI242
aI6
aa(lp2815
I1
aa(lp2816
I584
aa(lp2817
I6
aI371
aa(lp2818
I1
aI7
aI233
aI356
aI3
aI6
aI17
aa(lp2819
I6
aI371
aa(lp2820
I152
aI65
aI1
aI7
aI32
aI621
aI82
aa(lp2821
I1
aa(lp2822
I1
aI449
aa(lp2823
I401
aI4
aI12
aI81
aI603
aI83
aa(lp2824
I4
aI90
aI1
aI1
aI3
aa(lp2825
I523
aI412
aI394
aI284
aI284
aI253
aI142
aI810
aa(lp2826
I284
aI331
aI1
aI6
aa(lp2827
I1
aI152
aI1
aa(lp2828
I133
aI16
aI104
aI1
aI13
aa(lp2829
I5
aI84
aI2
aa(lp2830
I130
aI1
aI3
aI1
aI99
aI14
aI546
aI3
aa(lp2831
I1
aI95
aa(lp2832
I4
aI178
aI128
aI12
aI1
aI36
aI1
aI13
aa(lp2833
I34
aI1
aI1
aI1
aI10
aa(lp2834
I33
aI33
aI752
aI4
aI85
aI257
aI47
aI2
aI237
aa(lp2835
I125
aa(lp2836
I54
aI290
aI1
aI13
aa(lp2837
I1
aI1
aI275
aI1
aa(lp2838
I1
aI16
aI11
aI691
aI1
aI110
aI26
aI1
aa(lp2839
I19
aI286
aI774
aI6
aa(lp2840
I42
aI1
aa(lp2841
I4
aI1
aI109
aI108
aI5
aI1
aI3
aa(lp2842
I282
aI13
aa(lp2843
I282
aI1
aI520
aI1
aI6
aa(lp2844
I1
aI1
aI550
aI88
aa(lp2845
I24
aI7
aI646
aI1
aI217
aI464
aI1
aI25
aa(lp2846
I1
aI1
aI5
aI1
aI541
aa(lp2847
I1
aa(lp2848
I1
aI1
aI576
aa(lp2849
I73
aI646
aI3
aI89
aI612
aI372
aI79
aI1
aa(lp2850
I30
aI1
aI16
aI147
aI334
aa(lp2851
I1
aa(lp2852
I23
aI214
aa(lp2853
I38
aI4
aI28
aI1
aI1
aI3
aa(lp2854
I4
aI183
aI3
aI5
aI15
aI23
aI48
aI197
aI2
aa(lp2855
I1
aI1
aa(lp2856
I1
aI1
aI2
aI43
aI82
aI1
aa(lp2857
I745
aI517
aI7
aI98
aI1
aa(lp2858
I77
aI108
aI77
aI745
aI151
aI3
aa(lp2859
I1
aI5
aI550
aa(lp2860
I1
aa(lp2861
I1
aI1
aI3
aa(lp2862
I678
aI11
aI1
aI1
aI3
aI434
aa(lp2863
I1
aa(lp2864
I678
aI11
aI1
aI1
aI3
aI434
aa(lp2865
I1
aI1
aI9
aI10
aa(lp2866
I1
aI115
aI115
aI260
aa(lp2867
I4
aI48
aI1
aI1
aI612
aI1
aa(lp2868
I23
aI282
aI1
aI657
aI102
aI374
aa(lp2869
I1
aI6
aI572
aI15
aI344
aI5
aI2
aI1
aI6
aa(lp2870
I1
aa(lp2871
I758
aI370
aI370
aI758
aa(lp2872
I399
aI4
aI52
aI7
aI5
aI2
aI9
aI358
aI13
aa(lp2873
I5
aI14
aI1
aI4
aI7
aI6
aa(lp2874
I90
aI301
aI265
aI54
aI5
aI3
aa(lp2875
I344
aI3
aI22
aa(lp2876
I50
aI432
aI7
aI1
aI2
aI195
aa(lp2877
I1
aI43
aa(lp2878
I1
aI1
aa(lp2879
I261
aI597
aI326
aI8
aa(lp2880
I4
aI12
aI32
aI1
aI3
aa(lp2881
I1
aI9
aI1
aa(lp2882
I1
aI1
aa(lp2883
I36
aI1
aI2
aI1
aI7
aa(lp2884
a(lp2885
a(lp2886
I673
aI1
aI92
aI70
aI146
aI388
aI1
aa(lp2887
I1
aI21
aI155
aI1
aa(lp2888
I172
aI1
aI491
aI1
aI436
aI240
aa(lp2889
I50
aI261
aI295
aI1
aI48
aI173
aI240
aI9
aa(lp2890
I4
aI243
aI1
aI265
aI6
aa(lp2891
I1
aI2
aI1
aI1
aa(lp2892
I417
aI101
aI29
aI827
aI2
aa(lp2893
I327
aI1
aa(lp2894
I15
aI204
aI1
aI54
aI1
aI18
aa(lp2895
I1
aI1
aI2
aI407
aI7
aI11
aI540
aI2
aa(lp2896
I499
aI360
aI1
aI2
aI4
aI34
aI359
aI1
aI10
aa(lp2897
I178
aI108
aI82
aa(lp2898
I28
aI33
aI1
aa(lp2899
I574
aI120
aI123
aI282
aI1
aI437
aI3
aa(lp2900
I209
aI7
aI1
aa(lp2901
I139
aI103
aI1
aI1
aa(lp2902
I139
aI273
aa(lp2903
I829
aa(lp2904
I170
aI2
aI577
aI71
aI17
aa(lp2905
I589
aI1
aI210
aI1
aa(lp2906
I19
aI33
aI173
aI1
aI2
aI22
aI63
aa(lp2907
I1
aI2
aI5
aI31
aI595
aI102
aa(lp2908
I4
aI7
aI146
aI68
aI174
aa(lp2909
I252
aI268
aI1
aa(lp2910
I4
aI18
aI63
aI19
aI319
aI30
aI129
aI40
aa(lp2911
I1
aI2
aI146
aI68
aI442
aa(lp2912
I228
aa(lp2913
I4
aI349
aI413
aa(lp2914
I4
aI349
aI12
aI413
aa(lp2915
I17
aa(lp2916
I1
aI119
aI778
aa(lp2917
I1
aI381
aI83
aa(lp2918
I228
aa(lp2919
I50
aI4
aI7
aI146
aI68
aa(lp2920
I208
aI4
aI12
aI32
aI367
aI1
aa(lp2921
I1
aI70
aI146
aI68
aI413
aI18
aa(lp2922
I1
aI4
aI311
aa(lp2923
I341
aI1
aa(lp2924
I1
aI1
aI11
aa(lp2925
I261
aI78
aI1
aI1
aa(lp2926
I20
aI88
aI446
aa(lp2927
I1
aI534
aI1
aa(lp2928
I105
aI1
aI7
aI116
aI91
aa(lp2929
I1
aI801
aI113
aa(lp2930
I801
aI1
aI630
aI159
aa(lp2931
I17
aI1
aI1
aI497
aI30
aI181
aa(lp2932
I70
aI4
aI268
aI40
aa(lp2933
I1
aI6
aI1
aa(lp2934
I19
aI14
aI1
aI555
aI1
aa(lp2935
I172
aI1
aI887
aI7
aI1
aa(lp2936
I1
aI887
aa(lp2937
I719
aI146
aI413
aI18
aa(lp2938
I146
aI68
aI168
aa(lp2939
I216
aI1
aI373
aa(lp2940
I7
aI24
aI1
aa(lp2941
I187
aI6
aI146
aI68
aI304
aa(lp2942
I5
aI322
aI1
aa(lp2943
I728
aI1
aI156
aI1
aa(lp2944
I769
aI1
aa(lp2945
I288
aI6
aa(lp2946
I4
aI7
aI35
aI1
aa(lp2947
I43
aI11
aI152
aI323
aa(lp2948
I162
aI5
aI7
aI1
aI2
aa(lp2949
I1
aI99
aI1
aI14
aI140
aI3
aa(lp2950
I82
aI1
aI9
aI2
aa(lp2951
I1
aI57
aI565
aI11
aa(lp2952
I269
aI1
aI1
aI23
aI2
aI8
aa(lp2953
I1
aI137
aI1
aa(lp2954
I1
aI39
aI290
aI454
aI1
aa(lp2955
I202
aI1
aI81
aa(lp2956
I74
aI26
aI1
aI1
aI1
aI3
aI7
aI1
aI378
aI2
aI242
aa(lp2957
I24
aI48
aI143
aI12
aI1
aI1
aa(lp2958
I341
aI2
aa(lp2959
I1
aI67
aI207
aI614
aa(lp2960
I27
aI1
aI3
aa(lp2961
I9
aI403
aI151
aI1
aI880
aI2
aI581
aI1
aa(lp2962
I662
aa(lp2963
I1
aI1
aI5
aI16
aI11
aI30
aI1
aI87
aI7
aa(lp2964
I279
aI4
aI582
aI145
aI1
aa(lp2965
I1
aI1
aI3
aI145
aI1
aa(lp2966
I93
aI30
aI1
aI40
aa(lp2967
I9
aI403
aI151
aI1
aI880
aI2
aI581
aI1
aa(lp2968
I36
aI290
aI1
aI1
aI6
aa(lp2969
I658
aI681
aa(lp2970
I1
aa(lp2971
I552
aI6
aa(lp2972
I36
aI1
aI9
aa(lp2973
I66
aI93
aI156
aI230
aa(lp2974
I438
aI33
aI142
aI1
aI363
aI14
aI1
aI3
aa(lp2975
I1
aI420
aI2
aI169
aI1
aI1
aa(lp2976
I4
aI163
aI48
aI58
aI1
aa(lp2977
I632
aI81
aa(lp2978
I1
aI2
aI129
aa(lp2979
I58
aI1
aa(lp2980
I4
aI734
aI649
aI1
aI25
aI1
aI212
aI2
aa(lp2981
I1
aI335
aI82
aI7
aI1
aI1
aa(lp2982
I1
aa(lp2983
I19
aI82
aI43
aI5
aI652
aI305
aI2
aI1
aI3
aa(lp2984
I59
aI252
aI7
aa(lp2985
I1
aI1
aa(lp2986
I1
aI611
aI88
aI2
aa(lp2987
I1
aI2
aI470
aI1
aI2
aI29
aa(lp2988
I4
aI90
aI1
aI3
aI155
aI5
aI13
aa(lp2989
I225
aI113
aa(lp2990
I225
aI113
aa(lp2991
I234
aI1
aI1
aI303
aI6
aa(lp2992
I448
aa(lp2993
I21
aI533
aI5
aI126
aI4
aI872
aa(lp2994
I610
aI7
aI1
aI1
aI1
aI2
aI1
aa(lp2995
I256
aa(lp2996
I1
aI4
aI726
aI25
aI3
aa(lp2997
I50
aI1
aI726
aI14
aI1
aa(lp2998
I1
aI2
aa(lp2999
I56
aI1
aa(lp3000
I55
aI641
aI72
aI213
aI3
aa(lp3001
I9
aI1
aI6
aa(lp3002
I702
aa(lp3003
I15
aI492
aI2
aI29
aa(lp3004
I1
aI16
aI15
aI77
aI2
aI492
aI8
aa(lp3005
I12
aI56
aa(lp3006
a(lp3007
I1
aI11
aI217
aa(lp3008
I1
aI30
aI123
aI8
aa(lp3009
I1
aI123
aI1
aI404
aa(lp3010
I29
aI79
aI590
aI1
aI14
aI638
aI541
aI6
aa(lp3011
I274
aI759
aa(lp3012
a(lp3013
I1
aI24
aI1
aI6
aI29
aI16
aI24
aI791
aI2
aa(lp3014
I219
aI73
aI1
aI3
aa(lp3015
I769
aI266
aI82
aI602
aa(lp3016
I4
aI1
aa(lp3017
I130
aI30
aI1
aI5
aI1
aa(lp3018
I1
aI5
aa(lp3019
I5
aI313
aI116
aI1
aI4
aa(lp3020
I1
aI477
aI95
aI4
aI18
aa(lp3021
I266
aI2
aI602
aI2
aI7
aI207
aI657
aI30
aI477
aI2
aa(lp3022
I4
aI12
aI78
aa(lp3023
I1
aI1
aI203
aI1
aa(lp3024
I764
aa(lp3025
I1
aI2
aa(lp3026
I15
aI1
aI18
aa(lp3027
I1
aI295
aI65
aI1
aI2
aI1
aa(lp3028
I1
aa(lp3029
I89
aI6
aI1
aa(lp3030
I62
aI1
aI89
aI1
aa(lp3031
I1
aI640
aI160
aI82
aI33
aa(lp3032
I144
aI1
aa(lp3033
I1
aI389
aI3
aa(lp3034
I5
aI56
aI1
aI1
aI557
aI1
aI439
aa(lp3035
I881
aI10
aa(lp3036
I33
aI1
aI95
aa(lp3037
I1
aI41
aI386
aI1
aI2
aa(lp3038
I186
aI70
aI5
aI1
aI8
aa(lp3039
I272
aI204
aI99
aI140
aI10
aa(lp3040
I1
aI1
aI148
aI1
aI25
aI1
aI724
aI250
aa(lp3041
I1
aI1
aI148
aI1
aI25
aI1
aI724
aI250
aa(lp3042
I161
aI1
aa(lp3043
I1
aI1
aI1
aI1
aa(lp3044
I213
aI291
aI4
aI1
aI1
aI3
aa(lp3045
I17
aI7
aI6
aI4
aI1
aI11
aI1
aa(lp3046
I415
aI415
aa(lp3047
I37
aI5
aI15
aI337
aI18
aa(lp3048
I5
aI227
aI2
aI49
aa(lp3049
I1
aI5
aI273
aI2
aI4
aI289
aa(lp3050
I4
aI7
aI35
aI4
aI1
aI5
aI2
aI643
aa(lp3051
I1
aI1
aI1
aI1
aa(lp3052
I1
aI16
aI1
aI8
aa(lp3053
I213
aI36
aI807
aI3
aI53
aI29
aa(lp3054
I792
aa(lp3055
I7
aI6
aa(lp3056
I19
aI319
aI1
aI8
aa(lp3057
I1
aI141
aa(lp3058
I460
aI792
aI2
aI46
aa(lp3059
I830
aI29
aI602
aI1
aI576
aI1
aa(lp3060
I1
aI36
aI1
aI2
aI693
aa(lp3061
I291
aI338
aa(lp3062
I213
aI291
aI4
aI1
aI1
aI3
aa(lp3063
I31
aa(lp3064
I30
aI53
aa(lp3065
I49
aI162
aI7
aI1
aI1
aa(lp3066
I1
aI1
aa(lp3067
I1
aI1
aa(lp3068
I496
aa(lp3069
I56
aI5
aI13
aa(lp3070
I321
aI59
aa(lp3071
I1
aI1
aI73
aI522
aI3
aI321
aI6
aa(lp3072
I4
aI1
aI714
aI1
aI16
aI20
aI238
aI1
aa(lp3073
I743
aI1
aI2
aI1
aa(lp3074
I282
aI13
aa(lp3075
I1
aI807
aI3
aI1
aa(lp3076
I25
aI203
aI1
aI8
aa(lp3077
I328
aI2
aI1
aa(lp3078
I4
aI7
aI1
aI115
aa(lp3079
I1
aI115
aI1
aI1
aI3
aa(lp3080
I4
aa(lp3081
I142
aI126
aI46
aI445
aI709
aI1
aI113
aI46
aa(lp3082
I1
aI69
aI1
aI120
aI35
aI34
aI1
aI10
aa(lp3083
I34
aI1
aa(lp3084
a(lp3085
I52
aI48
aI2
aa(lp3086
I9
aI8
aI4
aI1
aI1
aI3
aa(lp3087
I75
aI276
aI155
aI1
aI14
aI199
aI3
aa(lp3088
I57
aI1
aI156
aI1
aI3
aa(lp3089
I735
aI6
aa(lp3090
I173
aI1
aI1
aa(lp3091
I85
aI589
aI1
aI7
aI52
aI26
aI199
aI1
aI10
aa(lp3092
I1
aI746
aI7
aI1
aI147
aI2
aa(lp3093
I27
aI1
aI1
aI2
aI467
aI11
aI204
aa(lp3094
I74
aI26
aI1
aI528
aa(lp3095
I9
aI1
aa(lp3096
I563
aI1
aa(lp3097
I196
aI1
aa(lp3098
I36
aI322
aI1
aI8
aa(lp3099
I812
aI9
aI33
aI1
aa(lp3100
I19
aI158
aI11
aI236
aI74
aI26
aI540
aI2
aI13
aa(lp3101
I80
aI31
aI90
aI74
aI157
aI3
aI10
aa(lp3102
I32
aI1
aI55
aa(lp3103
I1
aI52
aI26
aI199
aI1
aa(lp3104
I27
aI27
aI27
aI233
aI1
aa(lp3105
I1
aI11
aI505
aI1
aI253
aI1
aI3
aI77
aa(lp3106
I1
aI109
aI193
aI109
aI1
aa(lp3107
I605
aI1
aI1
aI780
aa(lp3108
I27
aI1
aI1
aI29
aI1
aI6
aa(lp3109
I290
aI1
aI6
aa(lp3110
I267
aI5
aa(lp3111
I45
aa(lp3112
I423
aI1
aI1
aI30
aI1
aI25
aI2
aa(lp3113
I774
aI6
aI1
aI2
aI427
aI351
aa(lp3114
I316
aI1
aI6
aa(lp3115
I4
aI70
aI5
aI48
aI2
aI268
aa(lp3116
I68
aI2
aI7
aI1
aa(lp3117
I1
aI504
aI12
aI199
aI10
aa(lp3118
I1
aI18
aa(lp3119
I575
aI617
aI1
aI462
aa(lp3120
I9
aI1
aa(lp3121
a(lp3122
I852
aI1
aI1
aI1
aI1
aa(lp3123
I579
aI1
aI175
aa(lp3124
I4
aI1
aI95
aI1
aI1
aa(lp3125
I248
aI9
aI8
aI1
aI1
aa(lp3126
I1
aI4
aI834
aa(lp3127
I101
aI51
aI182
aa(lp3128
I735
aI6
aa(lp3129
I19
aI242
aI14
aI155
aI1
aI18
aa(lp3130
I36
aI31
aI1
aI46
aI12
aI207
aI1
aa(lp3131
I109
aI615
aI109
aI1
aa(lp3132
I1
aI6
aa(lp3133
I202
aI426
aI1
aI6
aa(lp3134
I1
aI1
aI467
aI772
aI493
aa(lp3135
I201
aI73
aI542
aI75
aI276
aa(lp3136
I41
aI1
aI427
aI2
aI9
aa(lp3137
I1
aI202
aI1
aI877
aI313
aI1
aI1
aa(lp3138
I193
aI3
aI194
aI20
aI543
aI446
aI1
aa(lp3139
I36
aI276
aI3
aa(lp3140
I53
aI1
aI70
aI1
aa(lp3141
I515
aI232
aI16
aI322
aI406
aI2
aa(lp3142
I185
aI105
aI191
aI25
aI43
aI353
aI1
aI8
aa(lp3143
I453
aI1
aI1
aI6
aa(lp3144
I164
aI1
aI8
aI17
aa(lp3145
I5
aI2
aI1
aI244
aI32
aI1
aa(lp3146
a(lp3147
I45
aI104
aI276
aa(lp3148
I96
aI215
aa(lp3149
I193
aI3
aI8
aa(lp3150
I467
aI1
aI1
aI1
aI9
aI1
aa(lp3151
I37
aI199
aI52
aI1
aa(lp3152
I147
aI342
aI12
aI33
aI1
aa(lp3153
I1
aI504
aI12
aI199
aI10
aa(lp3154
I728
aI1
aI6
aa(lp3155
I1
aI1
aI1
aI81
aI1
aI1
aI10
aa(lp3156
I138
aI730
aI77
aI1
aa(lp3157
I14
aI421
aI138
aI187
aI48
aI589
aI1
aa(lp3158
I4
aI154
aI1
aa(lp3159
I39
aI40
aa(lp3160
I46
aI77
aI11
aI1
aI1
aI126
aI29
aI24
aI1
aa(lp3161
I191
aI2
aI1
aI70
aI1
aI198
aI8
aa(lp3162
I4
aI14
aI1
aI52
aI26
aI199
aI1
aa(lp3163
I1
aI8
aI1
aI241
aa(lp3164
I164
aI575
aI178
aI608
aI1
aa(lp3165
I248
aI4
aI1
aI78
aI1
aI73
aI328
aI3
aa(lp3166
I328
aI159
aI29
aI804
aI15
aI753
aI159
aI1
aI21
aI153
aI69
aI40
aa(lp3167
I1
aI1
aI1
aI1
aI1
aa(lp3168
I107
aI1
aI1
aa(lp3169
I1
aI246
aI11
aI1
aI1
aI1
aa(lp3170
I1
aa(lp3171
I58
aI252
aI6
aa(lp3172
I143
aI4
aI111
aI4
aI1
aI1
aI3
aa(lp3173
I1
aI241
aI9
aI1
aI6
aI148
aI7
aI1
aa(lp3174
I31
aI1
aI1
aI1
aI16
aI85
aI1
aI2
aI22
aa(lp3175
I126
aI80
aI257
aI46
aI750
aI8
aa(lp3176
I37
aI1
aI1
aa(lp3177
I11
aI1
aa(lp3178
I27
aI352
aI98
aI98
aI242
aI6
aI164
aa(lp3179
I5
aI16
aI37
aI1
aI71
aI1
aI6
aa(lp3180
I7
aI21
aI78
aI1
aI69
aa(lp3181
I19
aI1
aI56
aI46
aI23
aI154
aa(lp3182
I193
aI3
aI10
aa(lp3183
I27
aI176
aI1
aI6
aa(lp3184
I222
aI485
aI6
aa(lp3185
I7
aI2
aI6
aI137
aI88
aI137
aI217
aa(lp3186
I1
aI34
aI1
aa(lp3187
I1
aI8
aI41
aI17
aa(lp3188
I1
aI198
aI74
aI1
aI2
aI8
aa(lp3189
I23
aI91
aa(lp3190
I35
aI522
aI3
aa(lp3191
I287
aI6
aa(lp3192
I1
aI3
aa(lp3193
I379
aI542
aa(lp3194
I83
aI1
aa(lp3195
I552
aI4
aI23
aI4
aI27
aI72
aI1
aI72
aI167
aI2
aa(lp3196
I195
aI167
aI13
aI1
aa(lp3197
I485
aI49
aa(lp3198
I193
aI3
aI18
aa(lp3199
I21
aI13
aI1
aI20
aI1
aI1
aI1
aI1
aI108
aa(lp3200
I4
aI7
aI1
aI1
aI745
aI193
aI396
aa(lp3201
I17
aI277
aI70
aI115
aI2
aI439
aa(lp3202
(lp3203
I132
aI185
aI4
aI1
aa(lp3204
I1
aI19
aI1
aI7
aI353
aI1
aI18
aI1
aI13
aa(lp3205
I15
aI1
aI408
aI1
aa(lp3206
I37
aI697
aa(lp3207
I1
aI1
aa(lp3208
I296
aI33
aI1
aI13
aa(lp3209
I95
aI26
aI417
aI8
aa(lp3210
I36
aI33
aI1
aI6
aI66
aa(lp3211
I24
aI588
aI24
aI588
aa(lp3212
I883
aI1
aI1
aa(lp3213
I125
aI1
aa(lp3214
I296
aI33
aI25
aI43
aI13
aa(lp3215
I16
aI33
aI1
aI12
aI140
aa(lp3216
I484
aI1
aI1
aa(lp3217
I386
aI697
aI1
aI1
aa(lp3218
I151
aI1
aa(lp3219
I208
aI585
aI1
aI287
aI18
aa(lp3220
I1
aI108
aI724
aI1
aa(lp3221
I579
aI14
aI236
aI1
aI2
aI1
aI94
aa(lp3222
I37
aI697
aI408
aI33
aI823
aI579
aa(lp3223
I1
aI2
aa(lp3224
I1
aI71
aI246
aI14
aI1
aI2
aI1
aI3
aa(lp3225
I294
aI1
aI1
aI3
aa(lp3226
I392
aI1
aI71
aI246
aI7
aI1
aa(lp3227
I1
aa(lp3228
I1
aI37
aI599
aa(lp3229
I7
aI1
aI2
aI1
aI41
aI57
aI1
aa(lp3230
I39
aI1
aI6
aI22
aa(lp3231
I1
aI1
aI25
aI43
aI95
aI1
aI8
aa(lp3232
I33
aI2
aI8
aI244
aI32
aI95
aI26
aI417
aa(lp3233
I9
aI263
aI1
aI858
aI95
aI188
aI8
aa(lp3234
I205
aI1
aI2
aI1
aI16
aI33
aI1
aa(lp3235
I1
aI1
aa(lp3236
I33
aI151
aI408
aI148
aI24
aI1
aa(lp3237
I33
aI1
aI19
aI1
aI1
aI47
aI1
aI18
aa(lp3238
I1
aI1
aI1
aa(lp3239
I1
aa(lp3240
I472
aI162
aI287
aI1
aI679
aI1
aI13
aa(lp3241
I268
aa(lp3242
I31
aI1
aa(lp3243
I47
aI241
aa(lp3244
I504
aa(lp3245
I1
aa(lp3246
I1
aI46
aI487
aI46
aI1
aa(lp3247
I1
aa(lp3248
I1
aa(lp3249
I162
aI5
aI23
aI16
aI1
aa(lp3250
I1
aI23
aI1
aa(lp3251
I1
aI108
aI5
aI1
aI2
aI1
aa(lp3252
I1
aa(lp3253
I1
aI1
aa(lp3254
I1
aa(lp3255
I1
aa(lp3256
I1
aa(lp3257
I406
aa(lp3258
I46
aI716
aI4
aa(lp3259
I194
aI1
aa(lp3260
I833
aa(lp3261
I1
aa(lp3262
I1
aa(lp3263
I1
aa(lp3264
I1
aI1
aa(lp3265
I1
aa(lp3266
I1
aa(lp3267
I1
aI2
aI1
aa(lp3268
I1
aI1
aI1
aa(lp3269
I1
aa(lp3270
I1
aI1
aa(lp3271
I1
aI876
aa(lp3272
I37
aI1
aI1
aa(lp3273
I531
aa(lp3274
I1
aI1
aI1
aa(lp3275
I1
aI644
aa(lp3276
I1
aI1
aa(lp3277
I1
aI717
aI1
aa(lp3278
I1
aI1
aa(lp3279
I1
aI1
aa(lp3280
I15
aI492
aI2
aI29
aa(lp3281
I1
aa(lp3282
I160
aI79
aI1
aI391
aa(lp3283
I1
aI1
aa(lp3284
I1
aa(lp3285
I1
aa(lp3286
I1
aa(lp3287
I1
aa(lp3288
I1
aa(lp3289
I541
aI1
aI1
aa(lp3290
I67
aI160
aI2
aI268
aI4
aI169
aI5
aI1
aI3
aI1
aa(lp3291
I75
aI1
aI1
aI1
aa(lp3292
I274
aI36
aI474
aI508
aI3
aa(lp3293
I81
aI1
aa(lp3294
I799
aI153
aI46
aI2
aI391
aa(lp3295
I180
aI27
aI1
aa(lp3296
I1
aI120
aI1
aI33
aI1
aa(lp3297
I1
aa(lp3298
I1
aI7
aI454
aI1
aa(lp3299
I566
aI1
aa(lp3300
I1
aa(lp3301
I1
aI1
aa(lp3302
I1
aI1
aa(lp3303
I1
aI1
aI1
aa(lp3304
I1
aI566
aI1
aI1
aa(lp3305
I1
aa(lp3306
I854
aa(lp3307
I1
aI1
aa(lp3308
I1
aa(lp3309
I1
aI1
aa(lp3310
I1
aI1
aI1
aa(lp3311
I1
aa(lp3312
I833
aa(lp3313
I1
aI531
aa(lp3314
I1
aa(lp3315
I1
aa(lp3316
I1
aI2
aI1
aa(lp3317
I1
aI1
aI1
aa(lp3318
I1
aa(lp3319
I501
aa(lp3320
I347
aa(lp3321
I109
aI546
aI2
aI1
aa(lp3322
I1
aa(lp3323
I46
aI452
aI24
aI668
aI1
aa(lp3324
I5
aI388
aI1
aI644
aa(lp3325
I30
aa(lp3326
I30
aI14
aI168
aa(lp3327
I1
aa(lp3328
I1
aI1
aa(lp3329
I1
aI644
aa(lp3330
I1
aI80
aa(lp3331
I1
aI2
aI1
aI1
aa(lp3332
I1
aI1
aa(lp3333
I55
aI1
aI107
aI1
aI107
aI1
aI165
aI1
aI1
aa(lp3334
I586
aa(lp3335
I29
aI353
aI3
aI14
aI1
aI1
aa(lp3336
I30
aI1
aI793
aa(lp3337
I4
aI147
aI2
aI1
aI154
aI1
aa(lp3338
I681
aI5
aI1
aI185
aI1
aI3
aI10
aa(lp3339
I1
aa(lp3340
I448
aa(lp3341
I22
aI1
aI213
aI5
aI3
aa(lp3342
I17
aI1
aI1
aa(lp3343
I223
aI415
aI1
aa(lp3344
I7
aa(lp3345
I351
aa(lp3346
I1
aa(lp3347
I59
aI448
aI113
aa(lp3348
I44
aa(lp3349
I479
aa(lp3350
I364
aI1
aI218
aI70
aI1
aI1
aa(lp3351
I21
aI6
aa(lp3352
I9
aI593
aa(lp3353
I565
aI1
aI1
aI6
aa(lp3354
I1
aI18
aI58
aI112
aa(lp3355
I488
aI3
aI1
aI2
aI17
aa(lp3356
I1
aI1
aI708
aa(lp3357
I561
aI1
aI1
aI53
aa(lp3358
I1
aa(lp3359
I6
aI1
aI2
aI1
aI488
aI3
aa(lp3360
I1
aI2
aa(lp3361
I129
aI1
aI2
aa(lp3362
I1
aI129
aa(lp3363
I281
aI58
aI1
aa(lp3364
I45
aI5
aI20
aI23
aI470
aI13
aa(lp3365
I1
aI5
aI13
aa(lp3366
I1
aa(lp3367
I42
aa(lp3368
I56
aa(lp3369
I35
aI2
aI7
aI105
aI32
aI1
aI2
aI1
aa(lp3370
I245
aa(lp3371
I62
aa(lp3372
I243
aI106
aI425
aI367
aa(lp3373
I1
aa(lp3374
I1
aI51
aI170
aI2
aI501
aa(lp3375
I1
aI131
aI1
aa(lp3376
I684
aI749
aI838
aI1
aI6
aa(lp3377
I44
aa(lp3378
I31
aI18
aa(lp3379
I684
aI749
aI7
aI1
aI18
aa(lp3380
I549
aI7
aI51
aa(lp3381
I50
aI83
aa(lp3382
I269
aI1
aI51
aI1
aI1
aI396
aa(lp3383
I42
aa(lp3384
I1
aa(lp3385
I63
aa(lp3386
I50
aI1
aa(lp3387
I1
aI1
aI1
aa(lp3388
I32
aI1
aI1
aI713
aa(lp3389
I42
aI245
aa(lp3390
I245
aa(lp3391
I62
aa(lp3392
I715
aI51
aa(lp3393
I1
aa(lp3394
I62
aa(lp3395
I33
aI1
aI212
aI51
aa(lp3396
I209
aI1
aI1
aI3
aa(lp3397
I308
aI367
aI15
aI1
aI32
aI1
aI1
aI83
aa(lp3398
I23
aI91
aI6
aa(lp3399
I308
aI62
aI51
aa(lp3400
I245
aa(lp3401
I245
aa(lp3402
I4
aI1
aa(lp3403
I1
aI698
aI33
aI1
aI62
aa(lp3404
I89
aI62
aI6
aa(lp3405
I62
aI8
aa(lp3406
I1
aI7
aI1
aI4
aI169
aI5
aI107
aa(lp3407
I17
aa(lp3408
I42
aI245
aa(lp3409
I105
aI494
aI148
aI37
aI8
aI17
aa(lp3410
I62
aa(lp3411
I5
aI1
aI3
aI10
aa(lp3412
I596
aI1
aI1
aI33
aI225
aI95
aa(lp3413
I147
aI1
aI376
aI2
aI19
aI751
aI1
aa(lp3414
I63
aI367
aI8
aa(lp3415
I122
aI362
aa(lp3416
I4
aI34
aI62
aI2
aa(lp3417
I62
aI51
aa(lp3418
I17
aa(lp3419
I42
aI1
aI2
aI1
aI127
aa(lp3420
I89
aI62
aa(lp3421
I1
aI156
aI120
aa(lp3422
I64
aa(lp3423
I36
aI1
aI23
aI91
aa(lp3424
I122
aI362
aa(lp3425
I1
aa(lp3426
I59
aa(lp3427
I613
aI23
aI3
aa(lp3428
I62
aI51
aa(lp3429
I62
aa(lp3430
I64
aa(lp3431
I63
aI7
aI2
aa(lp3432
I343
aa(lp3433
I1
aa(lp3434
I42
aa(lp3435
I1
aa(lp3436
I126
aI5
aI1
aI3
aa(lp3437
I144
aI1
aa(lp3438
I169
aI4
aI86
aI451
aa(lp3439
I1
aI350
aI1
aa(lp3440
I180
aI1
aI1
aa(lp3441
I309
aI5
aI84
aI2
aa(lp3442
I59
aa(lp3443
I1
aI1
aI25
aI1
aI1
aI43
aa(lp3444
I563
aa(lp3445
I27
aI7
aI1
aI2
aI1
aI6
aa(lp3446
I1
aI1
aa(lp3447
I24
aI1
aI2
aI1
aI335
aI468
aI14
aI1
aI1
aI1
aI3
aa(lp3448
I6
aI19
aI485
aI13
aa(lp3449
I771
aI755
aa(lp3450
I501
aI503
aa(lp3451
I45
aI56
aI2
aa(lp3452
I7
aI2
aI7
aI2
aa(lp3453
I739
aI26
aI842
aa(lp3454
I1
aI134
aI16
aI11
aI1
aa(lp3455
I1
aI1
aI93
aa(lp3456
I1
aa(lp3457
I50
aa(lp3458
I1
aI73
aI1
aa(lp3459
I287
aI6
aI287
aI6
aa(lp3460
I5
aI1
aI1
aI1
aa(lp3461
I129
aa(lp3462
I7
aI1
aI1
aI2
aa(lp3463
I1
aI43
aI289
aa(lp3464
I20
aI1
aI679
aI2
aI1
aI394
aa(lp3465
I385
aa(lp3466
I1
aI3
aI63
aa(lp3467
I201
aI1
aI14
aI381
aI2
aI3
aa(lp3468
I1
aI70
aI1
aI202
aI771
aa(lp3469
I27
aI1
aa(lp3470
I101
aa(lp3471
I240
aa(lp3472
I384
aa(lp3473
I475
aI246
aI2
aI176
aI3
aI16
aI111
aI5
aI216
aI152
aI3
aI165
aa(lp3474
I606
aI1
aI23
aI1
aI2
aI128
aI1
aI18
aa(lp3475
I1
aI1
aa(lp3476
I1
aI6
aI22
aa(lp3477
I1
aI1
aI3
aI55
aa(lp3478
I1
aI5
aI73
aI1
aI3
aI55
aa(lp3479
I1
aI1
aI17
aa(lp3480
I1
aI5
aI12
aI62
aa(lp3481
I1
aI62
aI452
aI34
aI1
aI2
aa(lp3482
I60
aI64
aI89
aI1
aa(lp3483
I129
aa(lp3484
I421
aI1
aI101
aI1
aa(lp3485
I300
aI288
aI13
aa(lp3486
I11
aI558
aI411
aI55
aa(lp3487
I6
aI179
aI369
aI587
aI1
aa(lp3488
I165
aI105
aI165
aa(lp3489
I165
aI3
aI26
aI142
aI165
aa(lp3490
I9
aI8
aI63
aa(lp3491
I9
aI2
aI34
aI1
aI54
aI273
aI2
aa(lp3492
I6
aI42
aa(lp3493
I7
aI2
aI45
aa(lp3494
I55
aI35
aI2
aI9
aa(lp3495
I563
aa(lp3496
I1
aI1
aI12
aI24
aI829
aa(lp3497
I177
aa(lp3498
I19
aI1
aI13
aa(lp3499
I48
aI1
aI8
aa(lp3500
I1
aI14
aI155
aI1
aI8
aa(lp3501
I37
aI682
aI6
aa(lp3502
I43
aI289
aI1
aI8
aa(lp3503
I9
aI2
aa(lp3504
I1
aI291
aI1
aa(lp3505
I498
aI12
aI11
aI1
aI38
aa(lp3506
I66
aI12
aI31
aI637
aI498
aI6
aa(lp3507
I1
aI1
aI6
aa(lp3508
I1
aa(lp3509
I1
aa(lp3510
I1
aI1
aa(lp3511
I827
aI1
aI1
aa(lp3512
I1
aI230
aa(lp3513
I1
aI125
aI5
aI6
aa(lp3514
I201
aI192
aI1
aa(lp3515
I43
aI36
aI1
aI1
aI800
aa(lp3516
I81
aI1
aa(lp3517
I44
aI24
aI845
aI1
aI29
aI16
aI308
aI6
aa(lp3518
I1
aa(lp3519
I1
aI24
aI15
aI154
aI100
aI1
aI3
aI268
aa(lp3520
I30
aI76
aI5
aI148
aI799
aa(lp3521
I1
aI69
aI598
aI1
aI6
aa(lp3522
I39
aI1
aa(lp3523
I389
aI7
aI1
aa(lp3524
I315
aa(lp3525
I1
aI89
aI676
aI6
aa(lp3526
I312
aI13
aI1
aI453
aI25
aa(lp3527
I1
aI5
aI2
aI1
aI127
aa(lp3528
I1
aI9
aa(lp3529
I7
aI2
aI7
aI1
aI2
aI763
aa(lp3530
I1
aa(lp3531
I180
aI7
aI1
aI20
aI1
aI1
aa(lp3532
I1
aa(lp3533
I418
aI5
aI15
aI1
aa(lp3534
I1
aa(lp3535
I114
aI4
aI1
aa(lp3536
I162
aI7
aI1
aI1
aI43
aI832
aa(lp3537
I1
aI60
aI122
aI64
aa(lp3538
I5
aI1
aI10
aI22
aa(lp3539
I121
aI1
aI37
aI1
aI51
aa(lp3540
I4
aI1
aI1
aI37
aI1
aa(lp3541
I97
aa(lp3542
I1
aa(lp3543
I156
aI1
aI6
aI22
aa(lp3544
I1
aI2
aI521
aI189
aI6
aa(lp3545
I302
aI3
aa(lp3546
I128
aI117
aI1
aI3
aI1
aI756
aa(lp3547
I1
aI2
aI391
aI1
aI9
aI727
aI195
aa(lp3548
I22
aI118
aI609
aI3
aa(lp3549
I1
aI69
aI236
aI1
aI1
aa(lp3550
I1
aa(lp3551
I22
aI1
aI5
aI1
aI133
aa(lp3552
I22
aI1
aI1
aI76
aa(lp3553
I149
aI10
aI1
aa(lp3554
I1
aa(lp3555
I1
aI57
aI1
aI3
aa(lp3556
I72
aI615
aI53
aI625
aI1
aa(lp3557
I1
aa(lp3558
I7
aI2
aI5
aI12
aI824
aI132
aa(lp3559
I33
aI2
aI1
aI440
aI870
aI1
aI251
aa(lp3560
I5
aI184
aI1
aI455
aI382
aI1
aI23
aI13
aa(lp3561
I412
aI336
aI1
aI1
aI1
aI2
aa(lp3562
I230
aI826
aa(lp3563
I1
aa(lp3564
I6
aI422
aI51
aa(lp3565
I14
aI65
aI3
aI26
aI700
aI76
aa(lp3566
I1
aI1
aI1
aI15
aI1
aI255
aa(lp3567
I1
aI754
aI6
aa(lp3568
I42
aI1
aa(lp3569
I1
aI25
aI1
aI3
aI780
aa(lp3570
I42
aI22
aI1
aI3
aa(lp3571
I1
aI27
aI7
aI1
aI2
aI1
aa(lp3572
I1
aI771
aI436
aI1
aI566
aa(lp3573
I1
aI31
aI1
aa(lp3574
I586
aa(lp3575
I59
aa(lp3576
I1
aI51
aa(lp3577
I4
aI14
aI215
aI9
aI1
aI24
aI1
aa(lp3578
I225
aI4
aI337
aI6
aa(lp3579
I61
aa(lp3580
I5
aI337
aI23
aI620
aI6
aa(lp3581
I780
aI4
aI1
aI331
aI7
aa(lp3582
I141
aI184
aI471
aI3
aa(lp3583
I1
aI1
aa(lp3584
I1
aI1
aa(lp3585
I209
aI7
aI5
aI77
aI18
aI356
aI616
aa(lp3586
I5
aI28
aI21
aI578
aI47
aI6
aI257
aI5
aI1
aI8
aa(lp3587
I728
aI1
aI49
aa(lp3588
I45
aI730
aI2
aI104
aI1
aa(lp3589
I516
aI1
aI1
aI754
aI246
aI1
aa(lp3590
I193
aI516
aI588
aI2
aI101
aI33
aI2
aa(lp3591
I634
aI154
aI9
aI2
aI237
aI4
aI1
aI2
aa(lp3592
I73
aI542
aa(lp3593
I44
aI486
aI14
aI20
aI1
aa(lp3594
I1
aI1
aI18
aI22
aa(lp3595
I645
aI368
aI1
aI122
aI234
aI15
aI38
aa(lp3596
I1
aa(lp3597
I1
aI20
aI1
aI1
aa(lp3598
I4
aI12
aI81
aI1
aa(lp3599
I133
aI133
aI1
aa(lp3600
I6
aI4
aI1
aI3
aI10
aa(lp3601
I1
aa(lp3602
I47
aa(lp3603
I7
aI100
aI1
aI1
aI10
aa(lp3604
I552
aa(lp3605
I5
aI101
aI18
aa(lp3606
I33
aI103
aI5
aI251
aa(lp3607
I219
aI5
aI15
aI23
aI869
aa(lp3608
I174
aI1
aI187
aI148
aI858
aI241
aa(lp3609
I9
aI8
aI1
aI1
aa(lp3610
I219
aI103
aI3
aI292
aI293
aa(lp3611
I4
aI465
aI420
aI1
aI292
aI394
aI420
aa(lp3612
I292
aI580
aI801
aa(lp3613
I45
aI174
aI1
aa(lp3614
I191
aI168
aI720
aI1
aI11
aI30
aI1
aa(lp3615
I586
aI191
aI1
aI168
aa(lp3616
I4
aI12
aI32
aI150
aI239
aa(lp3617
I301
aI1
aI4
aI12
aI163
aI1
aI636
aI3
aa(lp3618
I4
aI530
aI5
aI12
aI1
aI94
aa(lp3619
a(lp3620
a(lp3621
I5
aI11
aI1
aI1
aa(lp3622
I779
aI219
aa(lp3623
I1
aI26
aI135
aa(lp3624
I1
aI236
aI2
aa(lp3625
I5
aI645
aI672
aI198
aI51
aa(lp3626
I763
aI2
aI1
aI1
aI20
aa(lp3627
I219
aI415
aI83
aa(lp3628
I5
aI16
aI11
aI1
aI1
aI1
aI419
aa(lp3629
I35
aI145
aI3
aI26
aI4
aI424
aI164
aa(lp3630
I219
aI4
aI645
aI292
aI1
aI1
aa(lp3631
I5
aI7
aI115
aI2
aI40
aI4
aI1
aI1
aI5
aI272
aa(lp3632
I1
aI5
aI1
aI1
aa(lp3633
I1
aI276
aI3
aI1
aa(lp3634
I52
aI881
aI3
aI6
aa(lp3635
I1
aI53
aI1
aI2
aI1
aa(lp3636
I383
aI1
aI6
aa(lp3637
I1
aI137
aI217
aa(lp3638
I5
aI1
aI292
aI40
aa(lp3639
I518
aI35
aI1
aI290
aI1
aI1
aI396
aa(lp3640
I92
aI1
aI1
aI662
aI12
aI701
aI10
aa(lp3641
I103
aI1
aI1
aa(lp3642
I38
aI1
aI1
aI88
aI212
aI2
aI883
aI16
aI290
aa(lp3643
I140
aI1
aI30
aI1
aI437
aI8
aa(lp3644
I4
aI48
aI663
aI198
aI8
aa(lp3645
I585
aI149
aI10
aI437
aI330
aa(lp3646
I1
aI1
aa(lp3647
I202
aI7
aI307
aa(lp3648
I1
aa(lp3649
I125
aa(lp3650
I134
aI16
aI590
aI2
aI820
aI255
aa(lp3651
I5
aI1
aa(lp3652
I5
aI316
aI1
aI11
aI152
aI4
aa(lp3653
I1
aI446
aI2
aI1
aI1
aa(lp3654
I44
aI4
aI153
aI3
aI561
aI7
aI1
aI108
aI1
aa(lp3655
I1
aa(lp3656
I22
aI5
aI20
aI689
aI1
aI10
aI1
aa(lp3657
I1
aI1
aI706
aa(lp3658
I20
aI84
aI577
aI1
aI1
aI105
aa(lp3659
I1
aI1
aI1
aI1
aa(lp3660
I1
aI1
aa(lp3661
I1
aa(lp3662
I1
aa(lp3663
I15
aI1
aa(lp3664
I1
aI564
aI176
aI28
aI21
aI564
aa(lp3665
I248
aI15
aI23
aI1
aI70
aI1
aI8
aa(lp3666
I1
aI70
aI626
aI2
aI1
aI1
aa(lp3667
a(lp3668
I1
aI20
aI18
aa(lp3669
I44
aa(lp3670
I9
aI2
aI42
aI3
aa(lp3671
I461
aI1
aI691
aa(lp3672
I461
aI28
aI82
aI1
aI395
aa(lp3673
I354
aI131
aI1
aI4
aI6
aa(lp3674
I189
aI1
aI12
aI37
aI1
aa(lp3675
I1
aI507
aI7
aI1
aa(lp3676
I1
aI1
aI1
aI1
aa(lp3677
I4
aI1
aI90
aI54
aI5
aI273
aI3
aI5
aI1
aa(lp3678
I60
aI61
aI64
aI1
aI1
aI74
aI13
aa(lp3679
I122
aI362
aa(lp3680
I1
aI176
aI163
aI400
aI11
aI1
aa(lp3681
I1
aI1
aI1
aa(lp3682
I45
aI1
aa(lp3683
I1
aI1
aI1
aa(lp3684
I4
aI1
aI196
aI1
aI10
aI220
aI220
aa(lp3685
I15
aI1
aI6
aI161
aI1
aa(lp3686
I42
aI354
aa(lp3687
I1
aI625
aI1
aI1
aI3
aI6
aa(lp3688
I1
aI189
aI1
aa(lp3689
I9
aI2
aa(lp3690
I61
aI60
aI64
aI61
aI42
aa(lp3691
I360
aI480
aI111
aI1
aI1
aI14
aI1
aI3
aa(lp3692
I58
aI1
aI1
aa(lp3693
I626
aI20
aI122
aI480
aI195
aa(lp3694
I170
aI2
aI1
aa(lp3695
I4
aI2
aI515
aI198
aI1
aI273
aa(lp3696
I7
aI18
aa(lp3697
I422
aI354
aI2
aI1
aI400
aI422
aa(lp3698
I1
aI1
aI317
aI1
aI7
aI18
aa(lp3699
I9
aI8
aI42
aI354
aa(lp3700
I150
aI239
aI54
aI5
aa(lp3701
I33
aa(lp3702
I1
aI1
aI113
aI13
aa(lp3703
I1
aI1
aI1
aI2
aI189
aa(lp3704
I4
aI2
aI238
aI1
aI15
aa(lp3705
I165
aI11
aI1
aI159
aI1
aa(lp3706
I1
aa(lp3707
I1
aI1
aI3
aa(lp3708
I20
aI300
aI128
aI18
aI63
aa(lp3709
I828
aI174
aI1
aI416
aI69
aa(lp3710
I45
aI36
aI543
aI7
aI1
aI2
aI3
aa(lp3711
I45
aa(lp3712
I5
aI1
aI9
aI1
aI3
aI63
aa(lp3713
I135
aa(lp3714
I9
aI8
aI5
aI20
aI300
aI712
aI6
aa(lp3715
I173
aI3
aI1
aI192
aI1
aI3
aa(lp3716
I101
aI1
aI390
aI1
aI1
aa(lp3717
I4
aI1
aI754
aI47
aI1
aa(lp3718
I7
aI380
aI562
aI2
aI143
aI75
aI1
aI3
aI4
aI3
aa(lp3719
I19
aI4
aI12
aI1
aI1
aI3
aI4
aI2
aI1
aI1
aa(lp3720
I1
aa(lp3721
I5
aI7
aI15
aI71
aI1
aa(lp3722
I125
aa(lp3723
I883
aI16
aI33
aI265
aI752
aI126
aI1
aI140
aa(lp3724
I1
aa(lp3725
I1
aI404
aI5
aI13
aa(lp3726
I27
aI205
aI306
aI412
aI1
aI1
aa(lp3727
I1
aI1
aa(lp3728
I1
aI1
aI2
aI91
aa(lp3729
I39
aI26
aI1
aa(lp3730
I422
aa(lp3731
I1
aI18
aa(lp3732
I67
aI1
aI3
aa(lp3733
I44
aI1
aI2
aI1
aa(lp3734
I34
aI190
aa(lp3735
I331
aI34
aI190
aI1
aI27
aI1
aa(lp3736
I33
aI49
aa(lp3737
I22
aI1
aI10
aa(lp3738
I11
aI1
aa(lp3739
I251
aI150
aI239
aI4
aI49
aI196
aI1
aI1
aI3
aI10
aa(lp3740
I9
aI2
aI132
aI1
aI1
aa(lp3741
I66
aI1
aI4
aI1
aI3
aa(lp3742
I604
aI5
aa(lp3743
I1
aI176
aI1
aI1
aI63
aa(lp3744
I1
aI1
aa(lp3745
I87
aI38
aI22
aI67
aI72
aI31
aI1
aa(lp3746
I5
aI103
aI4
aI8
aI22
aa(lp3747
I1
aI1
aI1
aI1
aa(lp3748
I170
aI6
aa(lp3749
I1
aI657
aI1
aI3
aI846
aI77
aI1
aa(lp3750
I267
aI20
aI35
aI4
aI10
aa(lp3751
I422
aI1
aI2
aa(lp3752
I1
aa(lp3753
I91
aI7
aI4
aI7
aI1
aa(lp3754
a(lp3755
I1
aI657
aI56
aI36
aI1
aI3
aa(lp3756
I1
aa(lp3757
I1
aI1
aI111
aI1
aI1
aa(lp3758
I42
aa(lp3759
I274
aI1
aI550
aa(lp3760
I1
aa(lp3761
I212
aI82
aI547
aI38
aa(lp3762
I15
aa(lp3763
I42
aa(lp3764
I42
aa(lp3765
I448
aI1
aa(lp3766
I25
aI8
aI1
aI223
aI1
aI38
aa(lp3767
I58
aI1
aI32
aI43
aI846
aa(lp3768
I85
aI590
aI7
aI1
aa(lp3769
I24
aI1
aI27
aI1
aI8
aa(lp3770
I401
aI71
aI3
aa(lp3771
I1
aI118
aI1
aI1
aa(lp3772
I1
aI6
aI1
aI113
aa(lp3773
I1
aI706
aa(lp3774
I385
aa(lp3775
I42
aI385
aI38
aa(lp3776
I50
aI122
aI362
aa(lp3777
I42
aI385
aa(lp3778
I52
aI537
aI1
aI1
aI1
aI13
aa(lp3779
I1
aI366
aI368
aI5
aI383
aa(lp3780
I4
aI382
aI366
aa(lp3781
I485
aI369
aI53
aI1
aa(lp3782
I366
aI6
aa(lp3783
I17
aa(lp3784
I45
aI42
aI1
aa(lp3785
I507
aI7
aI819
aI1
aa(lp3786
I4
aI1
aI1
aI562
aI8
aa(lp3787
I562
aI4
aI229
aI126
aI5
aI243
aI35
aa(lp3788
I1
aa(lp3789
I1
aI190
aI326
aa(lp3790
I312
aI42
aI385
aa(lp3791
I1
aI385
aa(lp3792
I50
aI308
aI283
aa(lp3793
I312
aI42
aa(lp3794
I50
aI122
aI362
aI385
aa(lp3795
I1
aI1
aI1
aI531
aa(lp3796
I50
aI42
aI16
aI32
aI378
aI67
aa(lp3797
I4
aI725
aI124
aI1
aI1
aI1
aI1
aI1
aI513
aI12
aI11
aI216
aa(lp3798
I158
aI5
aI223
aI97
aI3
aa(lp3799
I518
aI110
aI6
aI110
aI3
aI877
aI1
aa(lp3800
I1
aI2
aI1
aI15
aa(lp3801
I1
aI20
aI84
aa(lp3802
I114
aI13
aI5
aI90
aI1
aI69
aI4
aI2
aI1
aI3
aa(lp3803
I19
aI1
aI89
aI1
aa(lp3804
I4
aI7
aI87
aI32
aI1
aI195
aI1
aI13
aa(lp3805
I4
aI185
aI5
aI14
aI361
aI51
aI55
aa(lp3806
I1
aI9
aI7
aI9
aI408
aI1
aI72
aI1
aI72
aI1
aa(lp3807
I257
aI5
aI1
aa(lp3808
I862
aI1
aI414
aI1
aa(lp3809
I7
aI2
aI628
aI1
aa(lp3810
I1
aI1
aa(lp3811
I38
aI38
aI764
aa(lp3812
I38
aI23
aI38
aI363
aI16
aI11
aI204
aa(lp3813
I1
aI297
aI5
aI84
aI2
aa(lp3814
I1
aI1
aI297
aI2
aI5
aI330
aa(lp3815
I20
aI656
aI1
aI132
aa(lp3816
I1
aI125
aI5
aa(lp3817
I1
aI705
aI2
aI1
aa(lp3818
I875
aI1
aa(lp3819
I1
aa(lp3820
I1
aI1
aI706
aa(lp3821
I1
aI2
aa(lp3822
I1
aa(lp3823
I7
aI2
aa(lp3824
I1
aI2
aI29
aI11
aI1
aI17
aa(lp3825
I1
aI525
aI10
aa(lp3826
I523
aI14
aI30
aI6
aa(lp3827
I1
aa(lp3828
I1
aa(lp3829
I50
aI259
aI6
aI3
aa(lp3830
I1
aa(lp3831
I747
aI14
aI757
aa(lp3832
I383
aI10
aa(lp3833
I1
aa(lp3834
I526
aI7
aI190
aI310
aI777
aI51
aa(lp3835
I526
aI7
aI190
aI310
aI777
aI51
aa(lp3836
I90
aI1
aI47
aI1
aI3
aa(lp3837
I1
aa(lp3838
I5
aI12
aI33
aI439
aa(lp3839
I399
aI5
aI439
aI1
aa(lp3840
a(lp3841
I77
aI74
aI1
aa(lp3842
I5
aI7
aI1
aI2
aI40
aa(lp3843
I1
aI1
aI5
aI25
aI36
aI1
aI203
aa(lp3844
I6
aI55
aI182
aI529
aI5
aI604
aI3
aa(lp3845
I877
aI1
aI1
aa(lp3846
I4
aI12
aI37
aI35
aI56
aI5
aI35
aI109
aI350
aI1
aa(lp3847
I1
aI137
aa(lp3848
I1
aI1
aa(lp3849
I42
aI22
aI83
aa(lp3850
I519
aI756
aI245
aa(lp3851
I245
aa(lp3852
I1
aa(lp3853
I659
aI5
aI2
aI1
aa(lp3854
I837
aI3
aa(lp3855
I1
aI7
aa(lp3856
I1
aa(lp3857
I5
aI1
aI7
aI653
aa(lp3858
I87
aI102
aa(lp3859
I1
aa(lp3860
I1
aa(lp3861
I5
aI1
aa(lp3862
I149
aI10
aI51
aI149
aI10
aI794
aa(lp3863
I5
aI117
aI1
aa(lp3864
I87
aI10
aa(lp3865
I5
aI1
aI667
aI4
aI254
aI112
aI5
aI3
aa(lp3866
I131
aI184
aI46
aI46
aI7
aI1
aI1
aa(lp3867
I1
aI30
aI74
aI1
aa(lp3868
I4
aI7
aI5
aI22
aI785
aI1
aI1
aa(lp3869
I63
aI63
aI63
aI1
aa(lp3870
a(lp3871
I4
aI12
aI11
aI112
aI5
aa(lp3872
I4
aI24
aI409
aI2
aI9
aI102
aa(lp3873
I4
aI169
aI5
aI28
aI409
aI195
aa(lp3874
I9
aI8
aI114
aI4
aI119
aI280
aI409
aa(lp3875
I19
aI1
aI739
aI152
aI3
aa(lp3876
I4
aI1
aa(lp3877
I557
aI1
aI36
aI73
aI1
aa(lp3878
I144
aI653
aa(lp3879
I343
aa(lp3880
I129
aa(lp3881
I7
aI342
aa(lp3882
I433
aa(lp3883
I9
aI8
aI5
aI2
aI433
aI4
aI2
aI342
aa(lp3884
I31
aI5
aI2
aI7
aI433
aI4
aI2
aI7
aI342
aa(lp3885
I1
aa(lp3886
I4
aI2
aI7
aI433
aI5
aI2
aI7
aI1
aa(lp3887
I1
aI1
aI373
aa(lp3888
I21
aI65
aI69
aa(lp3889
I288
aI8
aI63
aI65
aI6
aI5
aI592
aI11
aa(lp3890
I1
aI333
aI3
aI22
aa(lp3891
I21
aI65
aI6
aa(lp3892
I1
aI6
aa(lp3893
I1
aI1
aI135
aI29
aa(lp3894
I788
aI580
aI1
aI3
aI22
aa(lp3895
I217
aI82
aI9
aI109
aa(lp3896
I1
aI90
aI499
aI1
aa(lp3897
I1
aa(lp3898
I25
aI439
aa(lp3899
I44
aI66
aa(lp3900
I66
aI42
aI225
aa(lp3901
I272
aI17
aa(lp3902
I214
aI1
aa(lp3903
I55
aI4
aI1
aI9
aI727
aa(lp3904
I9
aI1
aa(lp3905
I767
aI1
aa(lp3906
I50
aI1
aI122
aa(lp3907
I187
aI4
aI316
aI1
aI532
aI1
aa(lp3908
I531
aI384
aa(lp3909
I42
aa(lp3910
I19
aI4
aI196
aI1
aI1
aI1
aa(lp3911
I19
aI4
aI254
aI1
aI3
aa(lp3912
I1
aI41
aI1
aa(lp3913
I1
aa(lp3914
I1
aI6
aI736
aI612
aI1
aI95
aa(lp3915
I1
aI1
aI1
aI3
aa(lp3916
I67
aI101
aI5
aI229
aI211
aI3
aa(lp3917
I7
aI2
aI1
aI1
aI169
aI1
aI9
aa(lp3918
I22
aI5
aI2
aI234
aI280
aI334
aI18
aa(lp3919
I66
aI1
aI11
aI878
aa(lp3920
I58
aI1
aI214
aa(lp3921
I19
aI148
aI7
aI1
aI1
aI89
aa(lp3922
I55
aI1
aI1
aa(lp3923
I1
aI7
aI1
aa(lp3924
I20
aI134
aI92
aI1
aI102
aI91
aI6
aa(lp3925
a(lp3926
I46
aI77
aI35
aI2
aa(lp3927
I80
aI296
aI1
aI1
aa(lp3928
I1
aI36
aI32
aI1
aa(lp3929
I73
aI1
aI4
aI1
aa(lp3930
I17
aI739
aI4
aI1
aI46
aI1
aI1
aa(lp3931
I4
aI1
aI1
aI2
aI3
aa(lp3932
I5
aI1
aI1
aa(lp3933
I161
aI1
aI7
aI1
aI6
aa(lp3934
I39
aI80
aa(lp3935
I19
aI37
aI5
aI1
aI3
aa(lp3936
I141
aI30
aI108
aI4
aI617
aI1
aa(lp3937
I75
aI1
aI141
aI1
aI82
aI5
aI4
aI12
aI32
aa(lp3938
I5
aI1
aI1
aI3
aa(lp3939
I21
aI1
aI3
aa(lp3940
I183
aI3
aI22
aa(lp3941
I1
aI1
aa(lp3942
I141
aI7
aI1
aa(lp3943
I5
aI2
aI1
aI6
aa(lp3944
I5
aI286
aI197
aI40
aI124
aI1
aI1
aI2
aI191
aa(lp3945
I5
aI1
aa(lp3946
I1
aI5
aI394
aI8
aa(lp3947
I1
aI1
aI1
aa(lp3948
I57
aI19
aI1
aI314
aI1
aI1
aI3
aa(lp3949
I174
aI1
aa(lp3950
I86
aI1
aI86
aI610
aI7
aI1
aI57
aI843
aI3
aa(lp3951
I554
aI99
aI663
aI222
aa(lp3952
I1
aa(lp3953
I323
aI3
aI8
aa(lp3954
I323
aa(lp3955
I63
aI4
aI12
aI20
aI1
aI13
aI816
aI1
aI1
aI40
aa(lp3956
I1
aa(lp3957
I1
aI20
aI303
aI1
aa(lp3958
I221
aI51
aa(lp3959
I1
aI1
aI20
aI84
aI6
aa(lp3960
I118
aI298
aI1
aI6
aa(lp3961
I340
aI1
aI33
aI184
aI1
aI263
aa(lp3962
I19
aI14
aI87
aI1
aI3
aa(lp3963
I5
aI314
aI72
aI491
aI620
aI3
aa(lp3964
I1
aI2
aI1
aI304
aa(lp3965
I1
aI785
aI1
aI580
aI173
aI1
aI2
aI1
aa(lp3966
I42
aI4
aI106
aI1
aI1
aI43
aa(lp3967
I135
aI6
aa(lp3968
I63
aI42
aI202
aI7
aI77
aI1
aI2
aI376
aa(lp3969
I37
aI6
aI1
aa(lp3970
I1
aI1
aI3
aa(lp3971
I1
aI3
aI12
aI85
aI823
aI9
aI2
aI22
aa(lp3972
I1
aI686
aI710
aI336
aI823
aI222
aI3
aI22
aa(lp3973
I9
aI8
aI54
aI5
aI79
aI1
aI57
aI14
aI1
aI9
aa(lp3974
I52
aI1
aa(lp3975
I46
aa(lp3976
I1
aI52
aI120
aa(lp3977
I59
aa(lp3978
I1
aI280
aI1
aa(lp3979
I21
aI505
aI69
aI2
aI161
aI1
aI1
aI1
aI1
aa(lp3980
I1
aI7
aI1
aI2
aa(lp3981
I808
aI1
aI2
aI1
aI31
aa(lp3982
I1
aI230
aI38
aa(lp3983
I1
aI433
aa(lp3984
I334
aI166
aI28
aI48
aI433
aa(lp3985
I407
aI407
aI1
aI9
aI11
aI78
aI10
aa(lp3986
I114
aI27
aI7
aI1
aI376
aa(lp3987
I39
aI691
aI2
aI1
aI1
aI1
aI2
aI492
aa(lp3988
I1
aI6
aI22
aa(lp3989
I58
aI111
aI1
aI1
aI20
aI303
aI13
aa(lp3990
I1
aI6
aI1
aI7
aI134
aa(lp3991
I1
aI1
aa(lp3992
I1
aI3
aI8
aI1
aa(lp3993
I118
aI1
aa(lp3994
I50
aI1
aI302
aI3
aa(lp3995
I6
aI294
aI1
aI18
aa(lp3996
I1
aI9
aI118
aI217
aI1
aa(lp3997
I1
aa(lp3998
I1
aI13
aI166
aa(lp3999
I1
aI1
aI672
aI88
aI1
aI19
aI1
aI1
aa(lp4000
I1
aI7
aI1
aI38
aI22
aa(lp4001
I42
aI1
aI13
aa(lp4002
I36
aI338
aa(lp4003
I158
aa(lp4004
I4
aI12
aI78
aI20
aI1
aI1
aI6
aa(lp4005
I262
aa(lp4006
I5
aI1
aI3
aa(lp4007
I44
aa(lp4008
I16
aI600
aI2
aI97
aa(lp4009
I479
aI3
aI373
aI22
aa(lp4010
I668
aa(lp4011
I22
aI26
aI17
aa(lp4012
I5
aI15
aI1
aI17
aa(lp4013
I4
aI12
aI259
aa(lp4014
I50
aI201
aa(lp4015
I1
aI146
aI24
aI1
aa(lp4016
I1
aa(lp4017
I797
aI49
aa(lp4018
I1
aa(lp4019
I1
aI1
aa(lp4020
I44
aI1
aa(lp4021
I1
aa(lp4022
I1
aI23
aI1
aa(lp4023
I1
aa(lp4024
I17
aI182
aI66
aa(lp4025
I359
aI43
aa(lp4026
I45
aI19
aI14
aI1
aI3
aI22
aa(lp4027
I1
aI4
aa(lp4028
I7
aI2
aI7
aI2
aa(lp4029
I1
aI434
aa(lp4030
I45
aI1
aI97
aa(lp4031
I7
aI779
aa(lp4032
I473
aI192
aI21
aI852
aa(lp4033
I1
aa(lp4034
I131
aI1
aI4
aa(lp4035
I631
aI5
aI13
aa(lp4036
I19
aI170
aa(lp4037
I351
aa(lp4038
I158
aI16
aI32
aI1
aa(lp4039
I11
aI1
aa(lp4040
I365
aI527
aa(lp4041
I1
aI28
aI11
aI1
aI130
aI1
aI1
aa(lp4042
I1
aI18
aa(lp4043
I11
aI1
aI497
aI115
aI1
aI1
aa(lp4044
I1
aI41
aI258
aI2
aa(lp4045
I1
aa(lp4046
I410
aI1
aI5
aI81
aI23
aI189
aI2
aI191
aa(lp4047
I37
aI37
aI37
aa(lp4048
I1
aI12
aI1
aI3
aa(lp4049
I7
aI6
aI17
aa(lp4050
I1
aa(lp4051
I5
aI259
aI4
aI14
aI1
aI3
aa(lp4052
I783
aI1
aI84
aI7
aI1
aI85
aI1
aI2
aa(lp4053
I293
aI688
aI696
aI432
aI621
aI2
aa(lp4054
I293
aI688
aI696
aI295
aI53
aI1
aI2
aa(lp4055
I1
aa(lp4056
I1
aI1
aI325
aa(lp4057
I1
aI18
aa(lp4058
I67
aI521
aI28
aI33
aI212
aI527
aa(lp4059
I118
aI848
aI527
aa(lp4060
I50
aI848
aI1
aa(lp4061
I37
aI848
aa(lp4062
I35
aI3
aI1
aI146
aI16
aI33
aa(lp4063
I9
aI1
aa(lp4064
I94
aa(lp4065
I5
aI112
aI1
aa(lp4066
I11
aI112
aa(lp4067
a(lp4068
I31
aI18
aI459
aI16
aI216
aI1
aI3
aa(lp4069
I4
aI23
aI16
aI37
aa(lp4070
I1
aI146
aI16
aI9
aa(lp4071
I702
aa(lp4072
I1
aI2
aI40
aI22
aa(lp4073
I1
aI4
aI16
aI361
aa(lp4074
I1
aI109
aI9
aI9
aI3
aI25
aI1
aI8
aI22
aa(lp4075
I9
aI324
aI6
aa(lp4076
I460
aI37
aI1
aI1
aa(lp4077
I286
aI211
aI1
aI1
aa(lp4078
I667
aI1
aI1
aI866
aI2
aI35
aa(lp4079
I312
aa(lp4080
I570
aI24
aI167
aI39
aI1
aa(lp4081
I9
aI8
aa(lp4082
I1
aI1
aI1
aa(lp4083
I180
aI353
aa(lp4084
I430
aI153
aI3
aI451
aI178
aI217
aa(lp4085
I1
aa(lp4086
I5
aI73
aI1
aI3
aa(lp4087
I861
aa(lp4088
I1
aa(lp4089
I1
aI309
aa(lp4090
I262
aI262
aI262
aa(lp4091
I44
aI324
aa(lp4092
I540
aI3
aI1
aI124
aI1
aI10
aa(lp4093
I164
aI1
aa(lp4094
I56
aI40
aI19
aI255
aa(lp4095
I312
aI170
aa(lp4096
I312
aI5
aI10
aa(lp4097
I19
aI4
aI14
aI1
aI1
aI3
aa(lp4098
I668
aI1
aI3
aa(lp4099
I1
aI2
aI5
aI96
aI1
aa(lp4100
I1
aI591
aI3
aa(lp4101
I1
aI591
aI3
aa(lp4102
I288
aI1
aI4
aI21
aI113
aI420
aI253
aa(lp4103
I29
aI1
aI802
aI1
aa(lp4104
I44
aI96
aI120
aI619
aI1
aa(lp4105
I4
aI734
aI48
aI1
aI13
aa(lp4106
I1
aI28
aI48
aI142
aI1
aI46
aa(lp4107
I720
aI5
aI28
aI30
aI1
aI4
aI2
aI803
aa(lp4108
I272
aa(lp4109
I44
aI137
aI3
aa(lp4110
I180
aI272
aa(lp4111
I854
aI153
aI36
aI1
aI41
aI421
aI46
aa(lp4112
I381
aI19
aI14
aI1
aI8
aa(lp4113
I224
aI444
aI884
aI4
aI41
aI1
aI241
aa(lp4114
I884
aI1
aI1
aI2
aa(lp4115
I5
aI1
aI1
aI127
aa(lp4116
I262
aI49
aI1
aI3
aI57
aI1
aI694
aI3
aa(lp4117
I1
aI208
aI1
aI8
aa(lp4118
I580
aI23
aI1
aI49
aI27
aI16
aI1
aI1
aI3
aa(lp4119
I61
aI60
aI64
aI61
aI55
aa(lp4120
I44
aI1
aI2
aI4
aI1
aI210
aI1
aa(lp4121
I1
aI28
aI21
aI30
aa(lp4122
I56
aI28
aI21
aI30
aI28
aI21
aI30
aa(lp4123
I44
aI16
aI308
aI2
aI13
aa(lp4124
I1
aa(lp4125
I5
aI55
aa(lp4126
I4
aI1
aa(lp4127
I1
aI1
aa(lp4128
I6
aI6
aa(lp4129
I1
aI9
aa(lp4130
I44
aa(lp4131
I1
aI23
aI242
aI25
aI1
aI25
aa(lp4132
I1
aI183
aI3
aI10
aa(lp4133
I5
aI1
aI130
aI4
aI9
aI773
aa(lp4134
a(lp4135
I1
aI1
aI1
aa(lp4136
I1
aI109
aI1
aI3
aI6
aa(lp4137
I1
aI675
aa(lp4138
I96
aI7
aI1
aa(lp4139
I1
aI194
aI432
aI234
aI1
aI69
aI80
aI6
aa(lp4140
I1
aI7
aI1
aI611
aI2
aa(lp4141
I45
aI61
aI60
aI64
aI61
aI1
aI3
aa(lp4142
I1
aI21
aI1
aI1
aI444
aI2
aI9
aI83
aa(lp4143
I4
aI7
aI627
aI43
aI2
aI1
aa(lp4144
I44
aI4
aI95
aI1
aI3
aa(lp4145
I80
aI41
aI1
aI1
aI446
aI2
aI1
aa(lp4146
I4
aI748
aI6
aI22
aa(lp4147
I1
aI6
aI4
aI362
aI299
aI11
aI441
aI29
aI3
aa(lp4148
I187
aI5
aI2
aI447
aI7
aI1
aI7
aI10
aa(lp4149
I1
aI441
aI8
aI22
aa(lp4150
I59
aI1
aI1
aI3
aa(lp4151
I1
aI67
aI1
aI135
aI1
aa(lp4152
I5
aI878
aI23
aI3
aa(lp4153
I75
aI95
aI1
aI6
aI393
aI5
aI32
aI1
aI1
aI3
aa(lp4154
I5
aI878
aI4
aI719
aI847
aI111
aa(lp4155
I397
aa(lp4156
I1
aI870
aI4
aI447
aI177
aa(lp4157
I215
aI5
aI693
aI9
aa(lp4158
I177
aI5
aI20
aI84
aI2
aa(lp4159
I1
aI1
aa(lp4160
I9
aI403
aa(lp4161
I121
aI20
aI84
aa(lp4162
I174
aI1
aa(lp4163
I1
aI1
aI1
aa(lp4164
I162
aI31
aI655
aI325
aI280
aI1
aI3
aa(lp4165
I94
aI174
aI1
aI373
aa(lp4166
I1
aI255
aI3
aI60
aI64
aa(lp4167
I4
aI684
aI233
aI556
aI151
aI3
aa(lp4168
I1
aI809
aa(lp4169
I586
aa(lp4170
I4
aI12
aI78
aa(lp4171
I1
aI2
aa(lp4172
I7
aI1
aa(lp4173
I1
aI532
aI1
aI6
aa(lp4174
I139
aI229
aI103
aa(lp4175
I1
aa(lp4176
I1
aI1
aI23
aI470
aI11
aI409
aI3
aI6
aa(lp4177
I44
aI167
aI2
aa(lp4178
I341
aI1
aI1
aI2
aI107
aI1
aa(lp4179
I1
aI149
aI10
aI463
aa(lp4180
I72
aa(lp4181
I386
aI6
aI48
aI824
aI166
aI1
aa(lp4182
I44
aI1
aI388
aI1
aI3
aa(lp4183
I272
aI336
aI1
aI1
aI1
aI3
aa(lp4184
I217
aI1
aI6
aa(lp4185
I9
aI2
aI9
aI2
aa(lp4186
I170
aI27
aI887
aI583
aI2
aI229
aI1
aa(lp4187
I1
aa(lp4188
I272
aI9
aI1
aa(lp4189
I63
aI1
aI784
aI170
aa(lp4190
I1
aI7
aI1
aI2
aI1
aa(lp4191
I603
aI1
aa(lp4192
I46
aI4
aI11
aI14
aI112
aI3
aa(lp4193
I269
aI1
aI29
aI14
aI140
aa(lp4194
a(lp4195
I11
aI1
aI774
aa(lp4196
I90
aI103
aI3
aI38
aI394
aI1
aI97
aa(lp4197
I1
aI150
aI239
aa(lp4198
I58
aI1
aI1
aI1
aI177
aa(lp4199
I1
aa(lp4200
I139
aI1
aa(lp4201
I477
aI5
aa(lp4202
I107
aI1
aa(lp4203
I6
aa(lp4204
I366
aI6
aI5
aI14
aI207
aI35
aI99
aI477
aI2
aI237
aa(lp4205
I30
aa(lp4206
I5
aI32
aI54
aI4
aI1
aI18
aa(lp4207
I779
aI4
aI54
aI5
aI1
aI9
aI773
aa(lp4208
I1
aI4
aI1
aI518
aI3
aa(lp4209
I1
aI313
aI517
aI105
aI1
aa(lp4210
I702
aa(lp4211
I42
aI519
aI756
aI245
aa(lp4212
I1
aI805
aI3
aI385
aI6
aa(lp4213
I267
aI7
aI1
aI88
aI1
aI1
aI3
aI10
aa(lp4214
I139
aI711
aI865
aI635
aa(lp4215
I42
aa(lp4216
I1
aa(lp4217
I139
aI711
aI865
aI635
aa(lp4218
I646
aI63
aa(lp4219
I43
aI2
aI233
aI1
aI17
aa(lp4220
I7
aI35
aI1
aI2
aI73
aI522
aI3
aI18
aa(lp4221
I658
aI461
aI363
aI2
aa(lp4222
I17
aI1
aI604
aI3
aa(lp4223
I1
aI873
aI12
aI462
aI29
aI31
aI1
aI1
aI873
aa(lp4224
I1
aI514
aI1
aI300
aI295
aa(lp4225
I565
aI1
aI51
aI266
aI2
aI317
aI1
aa(lp4226
I17
aI1
aa(lp4227
I1
aa(lp4228
I1
aI2
aI795
aa(lp4229
I472
aa(lp4230
I1
aI5
aI35
aI2
aI24
aI1
aI1
aI42
aa(lp4231
I483
aI191
aI723
aI5
aI259
aI2
aa(lp4232
I1
aI115
aI1
aI1
aa(lp4233
I259
aI2
aa(lp4234
I9
aI8
aI1
aI2
aI4
aI1
aI3
aa(lp4235
I204
aI2
aI29
aI500
aI11
aI71
aI6
aa(lp4236
I5
aI161
aI104
aI11
aI148
aa(lp4237
I1
aa(lp4238
I42
aI24
aI353
aI1
aa(lp4239
I723
aI78
aI1
aI13
aa(lp4240
I1
aa(lp4241
I7
aI8
aI4
aI12
aI78
aa(lp4242
I50
aI1
aa(lp4243
I1
aI309
aa(lp4244
I15
aI1
aI1
aI2
aI40
aa(lp4245
I1
aI18
aa(lp4246
I1
aI17
aI55
aI70
aI17
aI55
aa(lp4247
I5
aI7
aI737
aI679
aI2
aI116
aa(lp4248
I318
aI98
aI1
aI1
aI2
aa(lp4249
I4
aI78
aI4
aI14
aI363
aI11
aI1
aa(lp4250
I37
aI689
aI7
aI87
aa(lp4251
I38
aI768
aI722
aI2
aI242
aI5
aI16
aI194
aI47
aa(lp4252
I19
aI1
aa(lp4253
I50
aI84
aI1
aI378
aa(lp4254
I1
aa(lp4255
I4
aI495
aI295
aI1
aa(lp4256
I4
aI1
aI36
aI363
aI12
aI862
aI1
aa(lp4257
I1
aI1
aa(lp4258
I114
aI388
aI1
aI2
aI41
aI46
aI668
aa(lp4259
I809
aa(lp4260
I41
aI70
aI1
aI1
aI8
aa(lp4261
I4
aI34
aI25
aI1
aI43
aI2
aa(lp4262
I735
aI1
aI2
aI164
aI14
aI27
aI1
aI3
aa(lp4263
I149
aI10
aI463
aa(lp4264
I50
aa(lp4265
I170
aa(lp4266
I634
aI7
aI1
aI2
aI237
aI125
aa(lp4267
I1
aI696
aI1
aI1
aI2
aa(lp4268
I1
aI2
aI1
aI1
aI1
aI13
aa(lp4269
I1
aI3
aa(lp4270
I38
aa(lp4271
I1
aa(lp4272
I294
aI1
aI172
aI1
aI10
aI16
aI1
aI10
aI316
aa(lp4273
I15
aI1
aI3
aa(lp4274
I426
aI6
aa(lp4275
I1
aI1
aI1
aI21
aI65
aI69
aa(lp4276
I7
aI132
aI138
aI1
aI85
aI123
aI1
aI297
aI13
aa(lp4277
I1
aI1
aI335
aI744
aI7
aI11
aa(lp4278
I6
aI7
aa(lp4279
I1
aI1
aI23
aI2
aa(lp4280
I19
aI738
aI188
aI16
aI20
aI51
aa(lp4281
I1
aI1
aI2
aI820
aI12
aI1
aa(lp4282
I1
aI36
aI1
aI198
aa(lp4283
I230
aI641
aI851
aI871
aI21
aI1
aI6
aa(lp4284
I114
aI4
aI90
aI1
aI3
aa(lp4285
I1
aI20
aI1
aI1
aa(lp4286
I9
aI8
aI122
aa(lp4287
I788
aa(lp4288
I230
aI41
aI71
aI49
aa(lp4289
I125
aI230
aa(lp4290
I50
aI42
aa(lp4291
I1
aa(lp4292
I777
aI1
aI485
aa(lp4293
I4
aI12
aI1
aa(lp4294
I172
aI868
aI438
aI256
aI59
aa(lp4295
I42
aa(lp4296
I42
aa(lp4297
I7
aI6
aa(lp4298
I107
aI338
aa(lp4299
I66
aI42
aa(lp4300
I715
aa(lp4301
I7
aI2
aI467
aI1
aI6
aa(lp4302
I248
aI5
aI1
aI7
aI15
aI71
aI1
aI49
aI785
aa(lp4303
I1
aa(lp4304
I5
aI7
aI15
aI1
aI2
aI29
aI51
aa(lp4305
I179
aI1
aI29
aI1
aI3
aI4
aa(lp4306
I172
aI868
aI438
aI256
aa(lp4307
I189
aI1
aa(lp4308
I9
aI8
aI192
aI31
aI256
aa(lp4309
I28
aI1
aI1
aa(lp4310
I1
aa(lp4311
I1
aI101
aI662
aI1
aI189
aI6
aa(lp4312
I1
aI1
aI10
aa(lp4313
I11
aI6
aa(lp4314
I195
aI19
aI255
aa(lp4315
I5
aI1
aI27
aI751
aI10
aa(lp4316
I1
aI396
aI51
aa(lp4317
I1
aa(lp4318
I121
aI649
aI1
aI3
aI4
aI102
aa(lp4319
a(lp4320
I4
aI12
aI11
aI482
aI564
aI713
aa(lp4321
I33
aI410
aI355
aI49
aa(lp4322
I59
aa(lp4323
a(lp4324
I201
aI256
aI1
aI1
aa(lp4325
I24
aI1
aI428
aa(lp4326
I7
aI4
aI322
aI849
aI10
aa(lp4327
I135
aI6
aI380
aI849
aI2
aI305
aI3
aI45
aI5
aa(lp4328
I1
aI2
aI473
aa(lp4329
I5
aI2
aI252
aI7
aa(lp4330
I1
aI57
aI1
aI712
aa(lp4331
I20
aI496
aI719
aI1
aI1
aI30
aI1
aI25
aa(lp4332
I59
aa(lp4333
I37
aI1
aa(lp4334
I1
aI1
aI58
aI1
aa(lp4335
I1
aI1
aI1
aI1
aa(lp4336
I61
aI60
aI64
aI61
aI163
aI213
aI431
aI1
aa(lp4337
I6
aI1
aa(lp4338
I648
aI1
aI2
aa(lp4339
I37
aI6
aI27
aI7
aI513
aI337
aa(lp4340
I41
aI1
aa(lp4341
I457
aI16
aI1
aI3
aa(lp4342
I170
aI4
aI1
aI3
aa(lp4343
I55
aa(lp4344
I343
aa(lp4345
I248
aa(lp4346
I5
aI27
aI1
aI24
aI1
aI6
aa(lp4347
I165
aI16
aI578
aI3
aI117
aI1
aI3
aI16
aa(lp4348
I50
aI1
aI1
aI3
aI1
aa(lp4349
I7
aI6
aI57
aI14
aI1
aa(lp4350
I343
aa(lp4351
I19
aI1
aI115
aI2
aI18
aa(lp4352
I544
aI86
aI3
aI154
aI254
aI155
aI1
aI3
aa(lp4353
I114
aI192
aI37
aa(lp4354
I551
aa(lp4355
I136
aI1
aa(lp4356
I60
aI64
aa(lp4357
I125
aI1
aa(lp4358
I117
aI47
aI1
aI1
aa(lp4359
I14
aI223
aI74
aI26
aI1
aI2
aI1
aI40
aa(lp4360
I1
aI2
aI81
aI11
aa(lp4361
I248
aa(lp4362
I149
aI10
aI3
aa(lp4363
I52
aI134
aI16
aI81
aI197
aI1
aa(lp4364
I484
aI1
aa(lp4365
I1
aI834
aI283
aa(lp4366
I1
aI1
aI112
aI95
aa(lp4367
I52
aI124
aI1
aa(lp4368
I1
aa(lp4369
I38
aI66
aa(lp4370
I375
aa(lp4371
I116
aa(lp4372
I58
aI1
aI123
aI1
aI200
aa(lp4373
I5
aI7
aI496
aI2
aI1
aa(lp4374
I50
aI84
aa(lp4375
I1
aa(lp4376
I846
aI1
aa(lp4377
I357
aI1
aI114
aI1
aI24
aI573
aI2
aa(lp4378
I12
aI37
aI8
aa(lp4379
I33
aI6
aI4
aI31
aI1
aI2
aI688
aI18
aa(lp4380
I36
aI33
aI15
aI1
aa(lp4381
I1
aI1
aI8
aI309
aa(lp4382
I28
aI31
aI514
aI2
aI772
aa(lp4383
I399
aI5
aI299
aI26
aI74
aI358
aa(lp4384
I22
aI5
aI74
aI358
aI18
aa(lp4385
I5
aI12
aI138
aI4
aI2
aI1
aa(lp4386
I136
aI116
aI136
aI116
aa(lp4387
I9
aI2
aI14
aI104
aI789
aa(lp4388
I25
aI190
aa(lp4389
I41
aI153
aI5
aI2
aI8
aI5
aI7
aI1
aI40
aa(lp4390
I379
aI5
aa(lp4391
I302
aI608
aI141
aI1
aI6
aI262
aI1
aI184
aI1
aI124
aa(lp4392
I41
aI645
aI8
aa(lp4393
I1
aa(lp4394
I5
aI1
aI30
aI113
aI4
aI16
aI1
aI3
aa(lp4395
I759
aI7
aI4
aI2
aI157
aa(lp4396
I1
aI1
aI29
aI14
aI231
aI6
aa(lp4397
I87
aI37
aa(lp4398
I4
aI1
aI742
aI38
aI17
aa(lp4399
I131
aI100
aI4
aI1
aI742
aI4
aI434
aa(lp4400
I195
aI33
aI809
aI784
aI6
aI73
aI1
aI3
aa(lp4401
I45
aI1
aI32
aI609
aI117
aI1
aa(lp4402
I1
aI25
aa(lp4403
I393
aI5
aI398
aI28
aI75
aI1
aa(lp4404
I11
aI1
aI199
aa(lp4405
I1
aI1
aa(lp4406
I1
aa(lp4407
I15
aI71
aI1
aI6
aa(lp4408
I731
aa(lp4409
I563
aI374
aI1
aI1
aa(lp4410
I1
aI9
aI10
aI1
aI182
aa(lp4411
I366
aa(lp4412
I66
aa(lp4413
I759
aa(lp4414
I116
aI11
aI1
aI6
aa(lp4415
I5
aI863
aI116
aa(lp4416
I359
aI1
aa(lp4417
I60
aI177
aI64
aa(lp4418
I507
aI7
aI544
aI31
aI19
aI98
aI40
aa(lp4419
a(lp4420
I4
aI338
aa(lp4421
I50
aa(lp4422
I1
aI113
aI1
aI58
aI1
aa(lp4423
I218
aI70
aI1
aI1
aI6
aa(lp4424
I1
aI129
aa(lp4425
I544
aI86
aI3
aI154
aI254
aI155
aI1
aI3
aa(lp4426
I114
aI192
aI37
aa(lp4427
I102
aa(lp4428
I19
aI398
aI286
aI149
aI10
aI74
aI1
aI95
aI1
aI6
aa(lp4429
I1
aI56
aI5
aI1
aI8
aa(lp4430
I415
aa(lp4431
I59
aI1
aI444
aa(lp4432
I60
aa(lp4433
I440
aI691
aa(lp4434
I484
aI90
aI299
aI3
aI521
aI3
aI14
aI1
aI3
aa(lp4435
I361
aa(lp4436
I293
aI484
aa(lp4437
I36
aI1
aa(lp4438
I116
aa(lp4439
I1
aI24
aI1
aI1
aa(lp4440
I4
aI1
aI68
aI674
aI528
aI42
aa(lp4441
I288
aI8
aa(lp4442
I7
aI2
aI132
aa(lp4443
a(lp4444
I397
aI396
aI504
aI11
aI864
aI1
aI8
aa(lp4445
I864
aI31
aI1
aa(lp4446
I1
aa(lp4447
I23
aI198
aI49
aI416
aI538
aa(lp4448
I5
aI119
aI416
aI60
aI64
aa(lp4449
I1
aI28
aI1
aa(lp4450
I495
aI12
aI37
aa(lp4451
I39
aI39
aI39
aI416
aa(lp4452
I145
aI5
aI145
aI5
aI145
aI5
aa(lp4453
I1
aa(lp4454
I419
aa(lp4455
I1
aa(lp4456
I5
aa(lp4457
I55
aa(lp4458
I60
aI64
aa(lp4459
I102
aa(lp4460
I5
aa(lp4461
I60
aa(lp4462
I5
aI1
aI23
aI51
aa(lp4463
I60
aI64
aa(lp4464
I1
aI11
aI1
aI610
aI43
aI5
aI1
aI3
aa(lp4465
I358
aa(lp4466
I119
aI1
aI60
aa(lp4467
I87
aI4
aI14
aI203
aI2
aI181
aa(lp4468
I9
aI8
aI4
aI2
aI157
aa(lp4469
I41
aI32
aI1
aI2
aI83
aa(lp4470
I50
aa(lp4471
I1
aI31
aI24
aI584
aI18
aI60
aI61
aI64
aa(lp4472
I7
aI18
aI4
aI11
aI112
aI1
aa(lp4473
I109
aI1
aI265
aI3
aa(lp4474
I488
aI398
aI3
aI21
aa(lp4475
I27
aI7
aI26
aI1
aI1
aI2
aI242
aI8
aa(lp4476
I97
aI1
aI2
aI35
aa(lp4477
I1
aI1
aa(lp4478
I1
aI5
aI27
aI23
aI1
aa(lp4479
I1
aI4
aI7
aI26
aI15
aI1
aI2
aI29
aI8
aI17
aa(lp4480
I19
aI186
aI1
aI53
aI332
aa(lp4481
I27
aI4
aI21
aI155
aI1
aa(lp4482
I45
aI4
aI227
aI1
aI3
aI1
aI177
aa(lp4483
I5
aI1
aI6
aa(lp4484
I45
aI323
aI220
aI220
aa(lp4485
I307
aI1
aI7
aI358
aI8
aa(lp4486
I9
aI3
aI4
aI7
aI15
aI209
aI2
aI29
aI3
aa(lp4487
I1
aa(lp4488
I28
aI285
aa(lp4489
I364
aI20
aI1
aI1
aI1
aI1
aa(lp4490
a(lp4491
I1
aI1
aI2
aI91
aa(lp4492
I1
aa(lp4493
I4
aI12
aI21
aI35
aI737
aI2
aI777
aa(lp4494
I634
aI4
aI7
aI5
aI34
aI1
aI43
aa(lp4495
I321
aI40
aa(lp4496
I27
aI7
aI1
aI116
aI1
aI13
aa(lp4497
I1
aI32
aI574
aI30
aa(lp4498
I125
aI1
aI1
aI1
aI1
aa(lp4499
I4
aI21
aI150
aI528
aa(lp4500
I479
aI3
aI22
aa(lp4501
I221
aI588
aa(lp4502
I1
aa(lp4503
I114
aI47
aI431
aI1
aI16
aI1
aI3
aa(lp4504
I1
aa(lp4505
I4
aI14
aI1
aI349
aa(lp4506
I4
aI471
aI4
aI1
aI4
aI471
aI4
aI1
aa(lp4507
I5
aI1
aI1
aI352
aI2
aa(lp4508
I321
aI264
aI6
aa(lp4509
I1
aI104
aI359
aa(lp4510
I1
aI1
aa(lp4511
I1
aI1
aa(lp4512
I57
aI13
aa(lp4513
I57
aI13
aa(lp4514
I462
aI3
aa(lp4515
I7
aI2
aa(lp4516
a(lp4517
I4
aI364
aI1
aI534
aI147
aI1
aI1
aI88
aI46
aa(lp4518
I1
aI79
aI1
aI14
aI1
aI1
aI3
aa(lp4519
I1
aI1
aI1
aI1
aa(lp4520
I22
aI379
aI389
aI53
aI29
aa(lp4521
I22
aI19
aI7
aI389
aI33
aI694
aI436
aI58
aI1
aI2
aa(lp4522
I4
aI72
aI31
aI21
aI110
aI69
aa(lp4523
I17
aI107
aI1
aI110
aI69
aa(lp4524
I1
aI543
aI145
aI545
aI7
aI1
aI2
aa(lp4525
I507
aI7
aI145
aI545
aI7
aI4
aI48
aI1
aa(lp4526
I525
aI100
aI4
aI1
aa(lp4527
I193
aI221
aI534
aI233
aI403
aI3
aa(lp4528
I44
aI44
aa(lp4529
I1
aa(lp4530
I131
aI1
aI4
aI92
aI1
aI79
aI68
aI1
aI6
aa(lp4531
I721
aa(lp4532
I31
aI638
aI18
aa(lp4533
I1
aI3
aI23
aI1
aI27
aI7
aa(lp4534
I50
aI1
aI4
aI1
aI1
aI334
aa(lp4535
I9
aI8
aI1
aI4
aI31
aI388
aI205
aI2
aa(lp4536
I55
aI1
aI9
aI860
aI38
aa(lp4537
I1
aI1
aI873
aI76
aa(lp4538
I1
aI25
aI3
aI1
aI1
aI394
aI136
aa(lp4539
I1
aI1
aa(lp4540
I327
aI26
aI1
aI1
aI1
aI3
aI26
aI1
aa(lp4541
I308
aI1
aI677
aI605
aI1
aa(lp4542
I41
aI15
aI1
aI122
aa(lp4543
I1
aI5
aI108
aI36
aI275
aI397
aI376
aI3
aI195
aa(lp4544
I1
aI1
aI573
aI8
aa(lp4545
I1
aI151
aI791
aI199
aI14
aI491
aa(lp4546
I174
aI1
aa(lp4547
I1
aI4
aI79
aI1
aI14
aI86
aI1
aa(lp4548
I1
aI1
aI10
aa(lp4549
I1
aI119
aI360
aI99
aI8
aa(lp4550
I316
aI37
aa(lp4551
I1
aI665
aa(lp4552
I156
aI556
aI2
aI1
aI1
aa(lp4553
I729
aI1
aI277
aI65
aI1
aa(lp4554
I1
aI65
aa(lp4555
I274
aI16
aI138
aI1
aa(lp4556
I116
aI91
aa(lp4557
I1
aI1
aI2
aI157
aa(lp4558
I1
aI1
aa(lp4559
I5
aI48
aI1
aI669
aI10
aa(lp4560
I636
aI20
aI13
aa(lp4561
I309
aI1
aI117
aI25
aI123
aI1
aa(lp4562
I97
aa(lp4563
I24
aI11
aI547
aI780
aa(lp4564
I1
aa(lp4565
I41
aI170
aa(lp4566
I479
aI3
aI309
aa(lp4567
I1
aa(lp4568
I1
aI136
aI2
aI29
aI14
aI71
aI3
aa(lp4569
I1
aI8
aa(lp4570
I374
aI1
aa(lp4571
I16
aI135
aI29
aI136
aI3
aI28
aI216
aI1
aa(lp4572
I149
aI10
aI16
aI600
aI1
aa(lp4573
I9
aI1
aI1
aI60
aI122
aI64
aa(lp4574
I54
aI26
aI1
aa(lp4575
I275
aI1
aI358
aI15
aI811
aI143
aI35
aI18
aa(lp4576
I1
aI1
aI1
aI811
aa(lp4577
I42
aI755
aI402
aI57
aI1
aI334
aa(lp4578
I539
aI1
aI707
aI139
aI327
aa(lp4579
I269
aI229
aI1
aI3
aI5
aI2
aI251
aI13
aa(lp4580
I278
aI105
aI786
aI220
aa(lp4581
a(lp4582
I103
aI13
aa(lp4583
I1
aI2
aI1
aa(lp4584
I19
aI1
aI15
aI1
aI3
aa(lp4585
I97
aI1
aa(lp4586
I129
aI268
aI2
aI1
aa(lp4587
I19
aI465
aI1
aI5
aI1
aI2
aI31
aI56
aI2
aI29
aa(lp4588
I179
aI4
aI70
aI46
aI1
aI136
aI1
aI2
aI237
aa(lp4589
I1
aI1
aI3
aa(lp4590
I750
aI1
aI1
aI1
aa(lp4591
I1
aI1
aI1
aI6
aa(lp4592
I597
aI21
aI437
aI721
aa(lp4593
I1
aa(lp4594
I1
aa(lp4595
I1
aI92
aa(lp4596
I1
aI1
aI5
aa(lp4597
I1
aa(lp4598
I1
aI1
aa(lp4599
I52
aI26
aI1
aI1
aI6
aa(lp4600
I21
aI1
aI13
aa(lp4601
I557
aI1
aI254
aI7
aI20
aI1
aI3
aa(lp4602
I9
aI2
aI5
aI123
aI69
aa(lp4603
I343
aI4
aI12
aI796
aI69
aI1
aa(lp4604
I59
aa(lp4605
I17
aI55
aI182
aa(lp4606
I1
aI1
aI82
aI16
aI24
aI1
aa(lp4607
I27
aI7
aI425
aI1
aI57
aI1
aa(lp4608
I338
aI6
aa(lp4609
I31
aI1
aI2
aI1
aI778
aI18
aa(lp4610
I617
aI1
aI3
aI1
aa(lp4611
I1
aI1
aa(lp4612
I1
aI1
aI3
aI370
aa(lp4613
I489
aI177
aa(lp4614
I1
aI9
aa(lp4615
a(lp4616
I87
aI10
aI67
aI211
aI20
aI1
aI92
aa(lp4617
I61
aI60
aI64
aI61
aI17
aa(lp4618
I1
aa(lp4619
I307
aa(lp4620
I22
aI5
aI7
aI1
aI354
aI102
aa(lp4621
I489
aI177
aa(lp4622
I61
aI60
aI64
aI61
aI489
aI177
aI177
aa(lp4623
I1
aI1
aI2
aI1
aI1
aI86
aI97
aa(lp4624
I120
aI2
aI354
aI96
aI1
aI467
aa(lp4625
I489
aI177
aa(lp4626
I426
aa(lp4627
I102
aI17
aI1
aa(lp4628
I44
aI535
aa(lp4629
I1
aI1
aI1
aI1
aI1
aI1
aa(lp4630
I489
aa(lp4631
I60
aI61
aI64
aI1
aa(lp4632
I431
aI1
aa(lp4633
I1
aI1
aI1
aI1
aI1
aI1
aI1
aa(lp4634
I1
aI11
aI1
aI3
aI6
aa(lp4635
I9
aI8
aI387
aI491
aI705
aI512
aa(lp4636
I579
aI1
aI253
aI21
aI226
aa(lp4637
a(lp4638
I25
aI311
aI166
aa(lp4639
I98
aI21
aI259
aa(lp4640
I1
aI3
aI26
aI633
aI109
aI1
aa(lp4641
I1
aI1
aI286
aI1
aa(lp4642
I84
aI84
aI84
aI1
aI185
aI277
aa(lp4643
I1
aI177
aI14
aI20
aI5
aI1
aa(lp4644
I1
aI176
aI3
aa(lp4645
I4
aI7
aI1
aa(lp4646
I655
aI325
aI387
aI1
aI217
aa(lp4647
I274
aI57
aI20
aI573
aI88
aI1
aI13
aa(lp4648
I42
aI61
aI60
aI64
aI61
aa(lp4649
I42
aa(lp4650
I44
aI42
aa(lp4651
I1
aI235
aa(lp4652
I4
aI48
aI13
aa(lp4653
I89
aI89
aa(lp4654
I1
aI2
aI1
aI246
aI1
aa(lp4655
I89
aI458
aa(lp4656
I1
aI414
aI5
aI1
aI1
aI3
aI18
aa(lp4657
I37
aI1
aI1
aI1
aa(lp4658
I4
aI244
aI12
aI39
aI1
aI1
aI1
aI8
aa(lp4659
I560
aI1
aI790
aI38
aa(lp4660
I435
aI344
aI1
aa(lp4661
I5
aI344
aI139
aI344
aI435
aI2
aI273
aI3
aI18
aa(lp4662
I37
aa(lp4663
I560
aI1
aI790
aI38
aa(lp4664
I12
aI127
aa(lp4665
I139
aI1
aI1
aI3
aa(lp4666
I1
aI1
aI38
aa(lp4667
I9
aI2
aa(lp4668
I560
aI131
aI38
aa(lp4669
I1
aa(lp4670
I12
aI127
aa(lp4671
I1
aI193
aI1
aI285
aI588
aI2
aa(lp4672
I14
aI20
aI238
aI58
aI2
aa(lp4673
I1
aI859
aa(lp4674
I796
aI418
aI31
aI1
aI29
aI530
aa(lp4675
I4
aI34
aI113
aI113
aI647
aI2
aa(lp4676
I5
aI27
aI209
aI126
aI4
aI24
aI1
aa(lp4677
I73
aI9
aI3
aa(lp4678
I5
aI1
aI1
aa(lp4679
I262
aI796
aI719
aI1
aI396
aI717
aa(lp4680
I214
aI1
aI3
aI1
aI1
aI1
aa(lp4681
I180
aI1
aI6
aI43
aI598
aI250
aI598
aa(lp4682
I27
aI12
aI85
aI250
aa(lp4683
I4
aI163
aI43
aI3
aI246
aI1
aI4
aI1
aI346
aa(lp4684
I192
aI81
aI703
aI306
aa(lp4685
I4
aI12
aI43
aI1
aI3
aa(lp4686
I1
aa(lp4687
I4
aI2
aI698
aI141
aI1
aa(lp4688
I1
aI2
aI191
aa(lp4689
I36
aI4
aI21
aI1
aI1
aI7
aI1
aI10
aa(lp4690
I502
aI2
aa(lp4691
I201
aa(lp4692
I431
aI43
aI1
aI19
aI34
aI250
aI1
aI3
aa(lp4693
I1
aI1
aI81
aI2
aa(lp4694
I59
aa(lp4695
I59
aa(lp4696
I59
aa(lp4697
I36
aI4
aI12
aI250
aI1
aI3
aa(lp4698
I22
aI7
aI1
aI8
aa(lp4699
I537
aI20
aI1
aI19
aI510
aI805
aI3
aa(lp4700
I1
aa(lp4701
I36
aI12
aI288
aa(lp4702
I4
aI12
aI1
aI36
aI127
aI21
aI155
aI1
aa(lp4703
I31
aI1
aI2
aI8
aa(lp4704
I1
aI875
aI875
aI875
aI1
aa(lp4705
I243
aI1
aI425
aa(lp4706
I731
aa(lp4707
I361
aa(lp4708
I53
aI232
aI53
aI1
aa(lp4709
I1
aa(lp4710
I1
aI9
aI1
aa(lp4711
I338
aa(lp4712
I7
aI2
aI8
aa(lp4713
I9
aI8
aa(lp4714
I7
aI2
aI1
aI1
aI101
aI627
aa(lp4715
I33
aa(lp4716
I826
aa(lp4717
I75
aI1
aI1
aI1
aI2
aI1
aI13
aa(lp4718
I5
aI1
aI6
aa(lp4719
I11
aI857
aa(lp4720
I129
aa(lp4721
I340
aI1
aI1
aa(lp4722
I863
aa(lp4723
I36
aI544
aI1
aI205
aa(lp4724
a(lp4725
I872
aI386
aI533
aI386
aI214
aI2
aI29
aI16
aI1
aI3
aa(lp4726
a(lp4727
I4
aI12
aI138
aI3
aa(lp4728
I161
aa(lp4729
I634
aI33
aI4
aI14
aI350
aa(lp4730
I122
aI1
aI37
aI1
aI3
aI748
aI3
aI173
aI707
aI8
aa(lp4731
I828
aI820
aI711
aI1
aI746
aI34
aI556
aa(lp4732
I7
aI232
aI1
aI1
aI200
aI1
aI1
aa(lp4733
I19
aI495
aI7
aI1
aI1
aI2
aI1
aI727
aI13
aa(lp4734
I232
aI1
aI1
aI34
aI551
aI6
aI1
aI1
aa(lp4735
I1
aI269
aI1
aI1
aI51
aI17
aa(lp4736
I172
aI605
aI1
aa(lp4737
I42
aI4
aI34
aI62
aI2
aa(lp4738
I1
aa(lp4739
I599
aI1
aI672
aI157
aI3
aa(lp4740
I34
aI123
aI580
aI2
aa(lp4741
I435
aa(lp4742
a(lp4743
I1
aI1
aI573
aI151
aI84
aI510
aI13
aa(lp4744
I4
aI1
aI16
aI20
aI19
aa(lp4745
I9
aI2
aI249
aI103
aI35
aI6
aa(lp4746
I5
aI741
aI1
aa(lp4747
I1
aI13
aI5
aI293
aI333
aa(lp4748
I1
aI38
aI164
aI210
aI11
aI204
aI6
aa(lp4749
I135
aI1
aI164
aa(lp4750
I1
aI7
aI166
aa(lp4751
I4
aI41
aI317
aI1
aI1
aa(lp4752
I1
aI19
aI127
aa(lp4753
I1
aI402
aI1
aI284
aI6
aa(lp4754
I549
aI87
aI51
aa(lp4755
I5
aI553
aI23
aI1
aI13
aI66
aI150
aI239
aI8
aa(lp4756
I315
aI63
aa(lp4757
I93
aI1
aI9
aI522
aI6
aa(lp4758
I17
aI6
aI9
aI1
aa(lp4759
I98
aI7
aI1
aa(lp4760
I5
aI1
aI1
aI1
aI5
aa(lp4761
I494
aI5
aI1
aI3
aa(lp4762
I4
aI1
aI21
aI1
aa(lp4763
I202
aI32
aI6
aa(lp4764
I170
aI384
aI1
aa(lp4765
I67
aI39
aI290
aI247
aI2
aI132
aa(lp4766
I9
aI8
aI1
aa(lp4767
I60
aI61
aI64
aI125
aa(lp4768
I67
aI27
aI1
aI481
aa(lp4769
I1
aI700
aI16
aI1
aa(lp4770
I93
aI35
aI2
aI9
aI1
aa(lp4771
I224
aI634
aI1
aI14
aI82
aI1
aI1
aI3
aa(lp4772
I247
aI7
aI1
aI49
aa(lp4773
I9
aI8
aI41
aI11
aI25
aI740
aI27
aI845
aI3
aa(lp4774
I52
aI26
aI91
aa(lp4775
I340
aI1
aI183
aI1
aI26
aI1
aI23
aI2
aa(lp4776
I67
aI34
aI28
aI118
aI79
aI1
aa(lp4777
I78
aI1
aI258
aI3
aa(lp4778
I202
aI565
aI6
aa(lp4779
I228
aI765
aI765
aa(lp4780
I752
aI1
aI1
aI16
aI1
aa(lp4781
I247
aI30
aI1
aa(lp4782
I58
aI1
aI188
aI1
aa(lp4783
I1
aI1
aI10
aa(lp4784
I118
aI154
aI47
aI1
aI21
aa(lp4785
I9
aI8
aI1
aI4
aI1
aI3
aa(lp4786
I118
aI32
aI153
aI10
aI504
aI740
aI443
aI8
aa(lp4787
I4
aI7
aI429
aa(lp4788
I4
aI7
aI1
aa(lp4789
I9
aI1
aI118
aI32
aI298
aI818
aI509
aa(lp4790
I30
aI1
aI10
aI538
aa(lp4791
I315
aI315
aa(lp4792
I35
aI87
aI13
aI15
aI188
aI18
aI1
aI1
aa(lp4793
I1
aI12
aI33
aI1
aI102
aI122
aa(lp4794
I525
aI247
aI76
aa(lp4795
I1
aI1
aI1
aI5
aI16
aI1
aI10
aI22
aa(lp4796
I1
aa(lp4797
I1
aa(lp4798
I33
aI6
aI752
aI118
aI15
aI188
aa(lp4799
I21
aI20
aI390
aa(lp4800
I19
aI118
aI1
aI172
aI1
aI692
aI443
aa(lp4801
I315
aI125
aa(lp4802
I188
aI1
aa(lp4803
I1
aa(lp4804
I56
aI132
aa(lp4805
I721
aI77
aI11
aI1
aI1
aI330
aa(lp4806
I30
aI1
aa(lp4807
I19
aI14
aI509
aI53
aI194
aI124
aI92
aI4
aa(lp4808
I30
aI1
aI509
aa(lp4809
I102
aI17
aa(lp4810
I4
aI150
aI239
aI5
aI293
aI83
aa(lp4811
I39
aI1
aI26
aI1
aI1
aI1
aI1
aa(lp4812
I9
aI2
aI13
aI1
aI700
aI10
aI4
aI24
aI85
aI65
aI133
aa(lp4813
I105
aI1
aI127
aI83
aa(lp4814
I546
aI26
aI1
aI2
aI40
aa(lp4815
I5
aI7
aI307
aI18
aa(lp4816
I32
aI6
aa(lp4817
I566
aI481
aI61
aa(lp4818
I1
aI1
aI11
aI825
aI1
aI14
aI555
aI83
aa(lp4819
I270
aI1
aI2
aI1
aa(lp4820
I4
aI1
aI3
aI5
aI3
aI5
aI54
aI4
aI23
aI1
aa(lp4821
I1
aI20
aI247
aI10
aa(lp4822
I247
aI781
aI166
aa(lp4823
I509
aI7
aI32
aI311
aI2
aa(lp4824
I1
aI315
aa(lp4825
I23
aI352
aI1
aa(lp4826
I646
aa(lp4827
I291
aI317
aI1
aI83
aa(lp4828
I1
aI7
aI115
aI2
aa(lp4829
I7
aI87
aa(lp4830
I4
aI21
aI35
aI1
aI5
aI861
aI3
aI10
aa(lp4831
I83
aI61
aa(lp4832
I1
aI118
aI12
aI34
aI783
aI547
aI1
aa(lp4833
I1
aI2
aI363
aI16
aI56
aa(lp4834
I85
aI126
aI118
aI783
aI547
aI4
aI12
aI1
aa(lp4835
I23
aI7
aI1
aI1
aa(lp4836
I1
aa(lp4837
I20
aI13
aI20
aI13
aa(lp4838
I20
aI13
aI302
aa(lp4839
I20
aI741
aI234
aa(lp4840
I15
aI71
aI1
aa(lp4841
I30
aI486
aI128
aI18
aI464
aI1
aa(lp4842
I23
aI128
aI6
aa(lp4843
I227
aI13
aa(lp4844
I22
aI67
aI2
aI209
aI133
aa(lp4845
I14
aI238
aI1
aa(lp4846
I22
aI67
aI2
aI209
aI133
aa(lp4847
I41
aI74
aI26
aI81
aI2
aI8
aa(lp4848
I12
aI37
aI6
aI4
aI78
aI4
aI381
aI2
aI6
aa(lp4849
I1
aI1
aa(lp4850
I302
aI3
aI1
aa(lp4851
I4
aI2
aI378
aI314
aI16
aI147
aI334
aI6
aa(lp4852
I1
aI1
aI8
aa(lp4853
I5
aI7
aI53
aI24
aI126
aI1
aI2
aI307
aa(lp4854
I34
aa(lp4855
I44
aI169
aI587
aI411
aa(lp4856
I419
aa(lp4857
I449
aI450
aa(lp4858
I78
aI75
aI138
aI738
aI1
aI115
aI375
aa(lp4859
I1
aI314
aI317
aI522
aI363
aa(lp4860
I264
aI1
aI264
aI1
aI23
aI1
aa(lp4861
I187
aI5
aI14
aI1
aI3
aa(lp4862
I31
aI1
aI7
aI90
aI1
aI1
aI3
aa(lp4863
I202
aI1
aI45
aa(lp4864
I419
aa(lp4865
I145
aI9
aI3
aa(lp4866
I1
aI732
aI1
aI1
aa(lp4867
I1
aI1
aa(lp4868
I21
aI153
aI69
aI45
aI252
aI1
aa(lp4869
I58
aI865
aI1
aI6
aI22
aa(lp4870
I114
aI4
aI12
aI1
aI655
aI325
aa(lp4871
I1
aI570
aI15
aI1
aI29
aI147
aI2
aI1
aa(lp4872
I9
aI1
aa(lp4873
I1
aa(lp4874
I422
aa(lp4875
I60
aI64
aa(lp4876
I1
aI1
aI518
aI1
aI505
aI6
aI815
aa(lp4877
I786
aI52
aI160
aI13
aa(lp4878
I1
aI1
aa(lp4879
I21
aI690
aI2
aI35
aa(lp4880
I36
aI549
aI7
aI386
aI842
aI2
aa(lp4881
I194
aI213
aI1
aI2
aI3
aa(lp4882
I1
aI402
aI127
aI24
aI1
aa(lp4883
I43
aI5
aI74
aI23
aI128
aI3
aa(lp4884
I55
aI182
aI647
aI200
aI4
aI1
aa(lp4885
I379
aI3
aa(lp4886
I663
aI1
aa(lp4887
I267
aI105
aI31
aI1
aI10
aa(lp4888
a(lp4889
I80
aI75
aI111
aI1
aI69
aa(lp4890
a(lp4891
I87
aa(lp4892
I1
aI113
aI6
aI22
aa(lp4893
I44
aI1
aI352
aI1
aa(lp4894
I1
aI1
aI215
aI7
aI311
aI2
aI18
aa(lp4895
I137
aI84
aI512
aI1
aI253
aI4
aI692
aI3
aI1
aa(lp4896
I1
aI83
aa(lp4897
I1
aI1
aI86
aI3
aa(lp4898
I14
aI1
aI624
aI8
aa(lp4899
I182
aa(lp4900
I5
aI1
aI871
aI18
aa(lp4901
I4
aI337
aI12
aI124
aI1
aI1
aI6
aa(lp4902
I1
aI1
aI49
aa(lp4903
I5
aI124
aI18
aI49
aa(lp4904
I5
aI7
aI1
aI1
aI1
aI209
aI10
aa(lp4905
I392
aI49
aI14
aI4
aa(lp4906
I19
aI1
aI17
aa(lp4907
I5
aI7
aI4
aI1
aI18
aa(lp4908
I1
aI20
aI1
aI1
aI690
aa(lp4909
I4
aI299
aI5
aI140
aI18
aa(lp4910
I225
aI1
aa(lp4911
I344
aa(lp4912
I1
aI16
aI120
aa(lp4913
I63
aa(lp4914
I4
aI103
aI5
aI3
aa(lp4915
I1
aI253
aI149
aI10
aa(lp4916
I1
aI34
aI149
aI2
aa(lp4917
I5
aI12
aI41
aI1
aI11
aa(lp4918
I34
aI65
aI9
aI1
aa(lp4919
I39
aI1
aI1
aI1
aI1
aa(lp4920
I196
aI1
aI38
aa(lp4921
I474
aI3
aa(lp4922
I1
aI137
aI11
aI30
aI6
aI22
aa(lp4923
I61
aI60
aI64
aI61
aa(lp4924
I834
aI1
aI2
aI836
aI171
aa(lp4925
I66
aI7
aI163
aI111
aI4
aI1
aI2
aI1
aI3
aI97
aa(lp4926
I30
aI6
aa(lp4927
I1
aI1
aI1
aI297
aI746
aa(lp4928
I1
aI1
aI210
aI1
aI746
aI12
aI16
aI15
aI3
aa(lp4929
I449
aI450
aI450
aa(lp4930
I312
aa(lp4931
I31
aI676
aa(lp4932
I676
aI6
aa(lp4933
I182
aI577
aI429
aI577
aI616
aI2
aI1
aa(lp4934
I567
aI172
aI1
aI10
aI22
aa(lp4935
I15
aI515
aI307
aa(lp4936
I38
aI1
aI157
aI3
aI162
aI7
aI122
aI1
aI122
aa(lp4937
I45
aI1
aI563
aI3
aa(lp4938
I410
aI1
aa(lp4939
I387
aI279
aa(lp4940
I1
aa(lp4941
I815
aa(lp4942
I28
aI21
aI789
aa(lp4943
I261
aI12
aI1
aI1
aa(lp4944
I616
aI41
aI429
aa(lp4945
I1
aI143
aI429
aa(lp4946
I45
aI1
aa(lp4947
I29
aI1
aI1
aa(lp4948
I1
aI10
aa(lp4949
I11
aI1
aI1
aa(lp4950
I74
aI26
aI1
aI2
aI515
aI1
aI89
aI676
aa(lp4951
I232
aI159
aI175
aI91
aa(lp4952
I557
aI424
aI858
aa(lp4953
I1
aI1
aI29
aI89
aa(lp4954
I1
aa(lp4955
I59
aa(lp4956
I1
aI1
aa(lp4957
I5
aI14
aI163
aI194
aI65
aI5
aI1
aI98
aa(lp4958
I5
aI12
aI33
aI1
aI113
aI40
aI1
aa(lp4959
I38
aI25
aI8
aa(lp4960
I380
aI71
aI2
aI1
aI512
aI1
aI596
aI2
aI16
aI1
aa(lp4961
I165
aa(lp4962
I1
aI5
aI1
aI56
aI4
aI599
aa(lp4963
I549
aI34
aa(lp4964
I782
aI1
aa(lp4965
I1
aI1
aI1
aI1
aI1
aa(lp4966
I1
aI43
aI5
aI317
aI356
aI416
aI102
aI761
aa(lp4967
I141
aI356
aI1
aa(lp4968
I1
aI1
aI32
aI1
aI51
aa(lp4969
I1
aI7
aI98
aI58
aI1
aa(lp4970
I55
aI21
aI155
aI109
aI206
aI2
aI51
aa(lp4971
I722
aI51
aI224
aI4
aI387
aI32
aI699
aa(lp4972
I1
aI193
aI844
aI403
aI10
aa(lp4973
I335
aI98
aI1
aI1
aI2
aI31
aI381
aI10
aa(lp4974
I1
aI1
aI100
aI1
aI33
aI10
aa(lp4975
I75
aI82
aI6
aI1
aI1
aI74
aI93
aI6
aa(lp4976
I5
aI103
aI4
aI5
aI2
aI1
aI94
aa(lp4977
I103
aI4
aa(lp4978
I17
aa(lp4979
I341
aI36
aI1
aI2
aI35
aa(lp4980
I1
aa(lp4981
I1
aI9
aI403
aI2
aI35
aa(lp4982
I1
aI15
aa(lp4983
I402
aI37
aI628
aI86
aI2
aa(lp4984
I11
aI185
aI120
aI609
aI2
aa(lp4985
I5
aI12
aI1
aI49
aa(lp4986
I52
aI1
aI6
aa(lp4987
I89
aI397
aI76
aI1
aI206
aI181
aa(lp4988
I38
aI179
aI43
aI2
aI233
aI1
aI2
aI3
aa(lp4989
I39
aI359
aI355
aI40
aa(lp4990
I1
aa(lp4991
I161
aI110
aI3
aI1
aI181
aI1
aI1
aa(lp4992
I22
aI5
aI119
aI30
aI130
aI2
aI4
aI9
aI1
aI6
aa(lp4993
I39
aI13
aI21
aI690
aI1
aI2
aa(lp4994
I249
aI136
aI249
aI2
aI1
aI1
aI46
aa(lp4995
I63
aI106
aI28
aI1
aI94
aa(lp4996
I874
aI33
aI1
aI8
aa(lp4997
I1
aa(lp4998
I63
aa(lp4999
I1
aI1
aI206
aI171
aa(lp5000
I278
aI360
aI1
aI13
aa(lp5001
I186
aI171
aa(lp5002
I45
aI27
aI1
aI1
aI41
aI1
aI13
aa(lp5003
I28
aI1
aa(lp5004
I1
aI1
aI55
aa(lp5005
I218
aI5
aI1
aI3
aI6
aa(lp5006
I518
aI1
aI1
aI191
aa(lp5007
I1
aI49
aa(lp5008
I1
aI1
aI1
aa(lp5009
I1
aI3
aI336
aI99
aI1
aI1
aa(lp5010
I1
aI86
aI3
aI254
aI266
aI3
aa(lp5011
I7
aI10
aI19
aI32
aI305
aI6
aI4
aI28
aI48
aI1
aI13
aa(lp5012
I4
aI12
aI138
aI4
aI12
aI32
aI1
aI13
aa(lp5013
I218
aI886
aI186
aI171
aa(lp5014
I1
aI4
aI3
aI1
aa(lp5015
I27
aI1
aI24
aI231
aI1
aI1
aI21
aa(lp5016
I135
aI1
aa(lp5017
I45
aI19
aI14
aI1
aI25
aI498
aa(lp5018
I131
aI40
aI498
aI73
aI772
aI3
aa(lp5019
I886
aI221
aI171
aa(lp5020
I106
aI231
aI6
aa(lp5021
I31
aI24
aI231
aI15
aI664
aI12
aI365
aI335
aa(lp5022
I1
aI1
aa(lp5023
I1
aI1
aI10
aa(lp5024
I17
aI4
aI73
aI1
aI3
aa(lp5025
I63
aI106
aI5
aI393
aI11
aI231
aI6
aI687
aa(lp5026
I4
aI12
aI572
aI15
aI469
aa(lp5027
I687
aI93
aI19
aI1
aI7
aI15
aI333
aI94
aa(lp5028
I131
aI1
aI40
aI370
aa(lp5029
I34
aI1
aI2
aa(lp5030
I886
aI221
aI171
aa(lp5031
I11
aI1
aI6
aa(lp5032
I249
aI77
aI212
aI601
aI46
aI469
aa(lp5033
I50
aI13
aI5
aI110
aI69
aI1
aI3
aI90
aa(lp5034
I269
aI1
aI3
aI4
aI1
aI1
aI2
aa(lp5035
I201
aI62
aI687
aa(lp5036
I17
aI1
aI10
aa(lp5037
I22
aI1
aa(lp5038
I148
aI1
aI629
aI222
aa(lp5039
I143
aI67
aI27
aI261
aI629
aI9
aI2
aI1
aa(lp5040
I58
aI558
aI475
aI1
aI1
aI3
aa(lp5041
I45
aI1
aI2
aa(lp5042
I4
aI499
aI2
aa(lp5043
I1
aI651
aI5
aI106
aI24
aI231
aI10
aa(lp5044
I1
aI6
aI63
aa(lp5045
I687
aI5
aI7
aI1
aI128
aI2
aa(lp5046
I218
aI5
aI78
aI1
aI34
aI1
aI10
aa(lp5047
I109
aI6
aI687
aI4
aI34
aI2
aI87
aa(lp5048
I44
aI142
aI1
aI43
aa(lp5049
I25
aI1
aI43
aI1
aa(lp5050
I761
aI1
aI32
aI206
aI171
aa(lp5051
I312
aI1
aI547
aa(lp5052
I32
aI1
aI18
aa(lp5053
I249
aI89
aI1
aa(lp5054
I50
aI13
aa(lp5055
I1
aI20
aI11
aa(lp5056
I20
aI13
aI20
aI13
aI430
aI699
aI339
aa(lp5057
I206
aI171
aI1
aI171
aa(lp5058
I5
aI1
aI2
aI83
aa(lp5059
I469
aI5
aI1
aa(lp5060
I6
aI619
aI3
aa(lp5061
I44
aI42
aI430
aI92
aI1
aI25
aI51
aa(lp5062
I5
aI169
aI4
aI280
aI109
aI49
aI17
aa(lp5063
I1
aI3
aa(lp5064
I5
aI28
aI500
aI15
aI1
aI2
aI283
aI13
aa(lp5065
I5
aI20
aI311
aI49
aa(lp5066
I75
aI879
aa(lp5067
I1
aI1
aI241
aI3
aI465
aI1
aI94
aa(lp5068
I63
aI417
aI339
aa(lp5069
I221
aI171
aa(lp5070
I339
aI35
aI5
aI1
aa(lp5071
I1
aI374
aI6
aa(lp5072
I196
aI1
aI1
aa(lp5073
I19
aI277
aI372
aI1
aI1
aI760
aa(lp5074
I1
aI94
aI1
aI94
aa(lp5075
I119
aI30
aI119
aI30
aI5
aI231
aI226
aa(lp5076
I47
aI3
aI624
aI1
aI14
aI592
aI3
aI28
aa(lp5077
I1
aI425
aI1
aa(lp5078
I1
aI88
aI264
aI34
aI672
aI1
aI2
aI17
aa(lp5079
I17
aI572
aI242
aI572
aI242
aI1
aI1
aI263
aa(lp5080
I5
aI13
aI12
aI271
aI6
aa(lp5081
I44
aI6
aI1
aI2
aI622
aa(lp5082
I5
aI128
aI175
aI49
aI52
aI12
aI167
aI13
aa(lp5083
I36
aI1
aI469
aa(lp5084
I379
aI2
aI7
aI283
aI1
aI6
aI22
aa(lp5085
I837
aI861
aI1
aI47
aI94
aa(lp5086
I109
aI83
aa(lp5087
I4
aI12
aI1
aI106
aI1
aa(lp5088
I1
aI6
aa(lp5089
I169
aI1
aI65
aI1
aI71
aI3
aa(lp5090
I806
aI98
aI6
aI381
aI2
aI10
aI5
aI16
aI1
aI3
aa(lp5091
I1
aI23
aI49
aI1
aI94
aa(lp5092
I5
aI12
aI313
aI80
aI275
aI5
aI2
aI53
aI1
aI76
aa(lp5093
I45
aI9
aI8
aa(lp5094
I120
aI12
aI33
aI1
aI1
aI363
aI94
aa(lp5095
I339
aI4
aI2
aI1
aI56
aI5
aI1
aI11
aa(lp5096
I262
aI94
aI836
aI1
aI1
aa(lp5097
I63
aI1
aI1
aI2
aI6
aa(lp5098
I1
aI76
aa(lp5099
I1
aI29
aI13
aa(lp5100
I4
aI271
aI6
aa(lp5101
I1
aI298
aI674
aI1
aI1
aI14
aI140
aa(lp5102
I44
aI15
aI1
aI736
aI395
aa(lp5103
I1
aI115
aa(lp5104
I877
aI77
aI1
aI1
aI226
aa(lp5105
I421
aI106
aI7
aI417
aI1
aI1
aI3
aa(lp5106
I12
aI663
aI659
aI368
aI14
aI310
aI3
aa(lp5107
I1
aI2
aI154
aI7
aI654
aI1
aI2
aa(lp5108
I1
aa(lp5109
I27
aI1
aI23
aI430
aI1
aI3
aa(lp5110
I52
aI336
aI6
aI4
aI1
aI471
aI11
aI441
aa(lp5111
I29
aI1
aI1
aI2
aa(lp5112
I678
aI80
aI11
aI1
aI39
aI1
aI3
aa(lp5113
I80
aI106
aI52
aI108
aI5
aI382
aI434
aI3
aa(lp5114
I1
aI1
aa(lp5115
I80
aI1
aI302
aI3
aa(lp5116
I4
aI57
aI110
aI1
aI8
aa(lp5117
I1
aI1
aa(lp5118
I116
aI124
aI1
aI2
aI1
aa(lp5119
I59
aI56
aI59
aI2
aa(lp5120
I111
aI225
aI3
aa(lp5121
I37
aI651
aI1
aI2
aa(lp5122
I1
aI1
aa(lp5123
I1
aI72
aI231
aI3
aa(lp5124
I130
aI95
aI4
aI12
aI582
aI1
aa(lp5125
I1
aI665
aI669
aI6
aa(lp5126
I224
aI90
aI1
aa(lp5127
I692
aI253
aI685
aI96
aI14
aI1
aI1
aI40
aa(lp5128
I9
aI8
aI4
aI734
aI75
aI1
aI1
aa(lp5129
I5
aI31
aI110
aI69
aI3
aI18
aa(lp5130
I19
aI316
aI1
aI6
aI71
aI1
aa(lp5131
I11
aI100
aI444
aI1
aa(lp5132
I236
aI601
aI80
aI3
aa(lp5133
I1
aI1
aI113
aI175
aI1
aI102
aa(lp5134
I17
aI121
aI100
aI457
aI1
aI1
aI6
aa(lp5135
I1
aI1
aa(lp5136
I15
aI1
aI1
aI1
aI120
aI2
aI520
aI102
aa(lp5137
I135
aI39
aI1
aI2
aI1
aI76
aa(lp5138
I9
aI8
aI15
aI169
aI37
aI9
aI6
aI1
aa(lp5139
I4
aI1
aI4
aI1
aa(lp5140
I1
aI8
aa(lp5141
I138
aI13
aa(lp5142
I874
aI85
aI43
aI6
aI272
aa(lp5143
I1
aa(lp5144
I110
aI3
aI1
aI1
aa(lp5145
I9
aI1
aI850
aI1
aa(lp5146
I6
aI330
aI1
aI234
aI31
aI294
aI2
aI1
aI8
aI96
aa(lp5147
I106
aI231
aI346
aI630
aI16
aI1
aI3
aa(lp5148
I1
aI1
aa(lp5149
I106
aI11
aI231
aI10
aa(lp5150
I1
aI4
aI1
aI346
aI97
aa(lp5151
I248
aI1
aI168
aa(lp5152
I561
aI23
aI6
aa(lp5153
I70
aI1
aI1
aI2
aI19
aI1
aI1
aa(lp5154
I39
aI855
aa(lp5155
I308
aI1
aI8
aa(lp5156
I249
aI35
aI99
aI744
aI237
aI1
aa(lp5157
I109
aI853
aI2
aI1
aI425
aI3
aa(lp5158
I58
aI1
aI1
aI1
aa(lp5159
I1
aI181
aI17
aa(lp5160
I1
aI1
aa(lp5161
I60
aI64
aI1
aa(lp5162
I44
aI417
aI1
aI2
aI94
aa(lp5163
I207
aI340
aI1
aa(lp5164
I165
aI1
aI14
aI33
aI3
aI96
aa(lp5165
I87
aI24
aI554
aI94
aI22
aa(lp5166
I1
aa(lp5167
I131
aI40
aa(lp5168
I46
aI77
aI12
aI32
aI1
aI2
aI500
aI1
aI3
aa(lp5169
I1
aI110
aa(lp5170
I228
aI206
aI1
aa(lp5171
I248
aI1
aI108
aI77
aI336
aI1
aI8
aa(lp5172
I1
aa(lp5173
I187
aI379
aI1
aI340
aI1
aI6
aa(lp5174
I5
aI574
aI275
aI1
aI18
aa(lp5175
I138
aI97
aa(lp5176
I155
aI1
aa(lp5177
I530
aI102
aa(lp5178
I65
aI1
aI3
aI430
aa(lp5179
I1
aI1
aI94
aa(lp5180
I52
aI181
aI1
aI1
aI2
aa(lp5181
I1
aa(lp5182
I158
aI21
aI1
aI1
aa(lp5183
I172
aI10
aI1
aI729
aI1
aI51
aa(lp5184
I651
aI67
aI25
aI740
aI1
aI2
aa(lp5185
I551
aa(lp5186
I128
aI24
aI167
aI6
aa(lp5187
I478
aI24
aI167
aI6
aI667
aI1
aI2
aI167
aI6
aa(lp5188
I478
aI23
aI2
aI94
aa(lp5189
I39
aI1
aI6
aI130
aI206
aa(lp5190
I15
aI1
aI6
aa(lp5191
I135
aI1
aI1
aa(lp5192
I776
aI478
aI41
aI23
aa(lp5193
I776
aI478
aI181
aa(lp5194
I9
aI1
aI776
aI94
aa(lp5195
I1
aI1
aI5
aI13
aa(lp5196
I38
aI31
aI6
aI1
aI68
aI1
aa(lp5197
I63
aI341
aa(lp5198
I445
aI76
aI5
aI508
aI1
aI18
aa(lp5199
I28
aI348
aI1
aI1
aI13
aa(lp5200
I4
aI12
aI37
aI17
aa(lp5201
I5
aI261
aI24
aI231
aI38
aI475
aI21
aI30
aI330
aa(lp5202
I38
aI1
aI4
aI265
aa(lp5203
I1
aI94
aa(lp5204
I438
aI11
aI1
aI24
aI1
aI2
aa(lp5205
I15
aI1
aI3
aI5
aI271
aa(lp5206
I7
aI49
aI4
aI7
aI218
aI639
aI193
aI4
aI1
aI6
aa(lp5207
I469
aI127
aI6
aa(lp5208
I222
aI584
aI1
aa(lp5209
I144
aI6
aa(lp5210
I55
aI16
aI740
aI1
aI3
aa(lp5211
I55
aI502
aI1
aa(lp5212
I7
aI13
aI5
aI101
aa(lp5213
I57
aI2
aI1
aI1
aI1
aI3
aa(lp5214
I7
aI49
aI24
aI1
aa(lp5215
I4
aI56
aI1
aI37
aI1
aa(lp5216
I837
aI123
aI36
aI21
aI1
aI12
aI32
aI15
aa(lp5217
I57
aI14
aI466
aI1
aa(lp5218
I1
aI40
aI1
aa(lp5219
I45
aI1
aI16
aI24
aI1
aa(lp5220
I19
aI32
aI52
aI136
aI94
aI293
aI147
aI241
aa(lp5221
I1
aI1
aa(lp5222
I1
aI1
aI7
aI797
aI2
aI1
aa(lp5223
I5
aI1
aI128
aI2
aI49
aa(lp5224
I19
aI32
aI43
aI7
aI35
aI2
aI632
aI41
aI1
aI3
aa(lp5225
I1
aa(lp5226
I632
aI1
aI1
aI1
aI99
aI2
aI124
aI1
aa(lp5227
I1
aI23
aI1
aI121
aI34
aI671
aI181
aa(lp5228
I55
aI34
aI6
aa(lp5229
I4
aI1
aI34
aI671
aI2
aI29
aI1
aa(lp5230
I1
aI639
aI68
aa(lp5231
I1
aI1
aa(lp5232
I24
aI588
aI13
aI174
aI1
aI1
aa(lp5233
I279
aI1
aI457
aI16
aI25
aa(lp5234
I5
aI25
aI6
aa(lp5235
I150
aI1
aI34
aI351
aI6
aa(lp5236
I7
aI6
aa(lp5237
I30
aI166
aa(lp5238
I136
aI23
aI166
aa(lp5239
I359
aI74
aI26
aI1
aI355
aI76
aa(lp5240
I361
aI1
aI1
aI1
aI103
aa(lp5241
I7
aI6
aI11
aI1
aI233
aI1
aI3
aa(lp5242
I85
aI15
aI116
aI1
aI94
aI590
aI355
aI76
aa(lp5243
I196
aI1
aI1
aI1
aI466
aa(lp5244
I90
aI299
aI3
aI1
aI1
aI3
aa(lp5245
I178
aI25
aI3
aI183
aI18
aa(lp5246
I1
aI25
aI3
aa(lp5247
I19
aI14
aI1
aa(lp5248
I99
aI47
aI1
aI1
aI1
aa(lp5249
I1
aI857
aI813
aI1
aI1
aI90
aI857
aI1
aI332
aI47
aI1
aI51
aa(lp5250
I360
aI320
aI34
aI43
aI59
aI320
aI52
aI197
aa(lp5251
I278
aI1
aI263
aI228
aa(lp5252
I228
aa(lp5253
I440
aI1
aa(lp5254
I204
aI99
aI2
aa(lp5255
I121
aI35
aI46
aI314
aI24
aI1
aa(lp5256
I4
aI871
aI93
aI24
aI1
aI2
aa(lp5257
I27
aI1
aI7
aI79
aI847
aI1
aI2
aI198
aa(lp5258
I44
aI59
aI1
aI408
aI192
aI24
aI335
aa(lp5259
I268
aa(lp5260
I1
aI1
aI6
aI17
aa(lp5261
I1
aa(lp5262
I1
aI12
aI571
aI213
aI51
aI337
aI1
aI10
aa(lp5263
I68
aI2
aa(lp5264
I23
aI91
aI6
aI551
aI352
aI266
aI9
aI13
aa(lp5265
I55
aa(lp5266
I463
aI99
aI1
aI2
aI91
aI12
aI37
aI9
aI10
aa(lp5267
I155
aI5
aI7
aI30
aI1
aI142
aI74
aI53
aI40
aa(lp5268
I37
aa(lp5269
I571
aI1
aI4
aI295
aI97
aa(lp5270
I129
aa(lp5271
I32
aI1
aI1
aI1
aI713
aI18
aa(lp5272
I32
aI2
aI39
aI36
aI1
aI132
aI1
aa(lp5273
I1
aI1
aI687
aa(lp5274
I34
aI1
aI2
aI6
aI22
aa(lp5275
I121
aI14
aI290
aI382
aI99
aI1
aI2
aI51
aa(lp5276
I58
aI1
aI116
aI7
aI1
aa(lp5277
I1
aI15
aI1
aI1
aa(lp5278
I1
aI1
aa(lp5279
I138
aI5
aI853
aI304
aa(lp5280
I1
aI1
aI1
aI1
aI1
aI1
aa(lp5281
I1
aI1
aI52
aI567
aI13
aa(lp5282
I1
aI102
aI17
aa(lp5283
I17
aI7
aI5
aI48
aI2
aI8
aa(lp5284
I11
aI1
aa(lp5285
I4
aI7
aI1
aI31
aI1
aa(lp5286
I5
aI1
aI13
aa(lp5287
I42
aa(lp5288
I42
aa(lp5289
I1
aI1
aI14
aI20
aI25
aI1
aI2
aI1
aa(lp5290
I37
aI6
aI39
aI24
aI1
aI2
aI365
aI221
aa(lp5291
I9
aI1
aa(lp5292
I1
aI783
aa(lp5293
I422
aI1
aa(lp5294
I44
aI44
aa(lp5295
I27
aI170
aa(lp5296
I42
aa(lp5297
I9
aI8
aI19
aI4
aI694
aI1
aI3
aa(lp5298
I1
aI1
aa(lp5299
I1
aI369
aI79
aI1
aa(lp5300
I364
aI20
aI490
aI404
aa(lp5301
I57
aI287
aI490
aI2
aI56
aI10
aI277
aI1
aa(lp5302
I56
aI2
aI28
aI490
aI2
aa(lp5303
I287
aI490
aI200
aa(lp5304
I1
aI96
aI840
aa(lp5305
I9
aI2
aI1
aI38
aa(lp5306
I185
aI26
aI1
aI1
aI8
aI66
aa(lp5307
I1
aI1
aI11
aI25
aa(lp5308
I1
aI343
aa(lp5309
I1
aI1
aI2
aI1
aI6
aa(lp5310
I41
aI1
aI22
aI6
aI55
aa(lp5311
I440
aI5
aI661
aI1
aI1
aI74
aI4
aa(lp5312
I1
aI1
aI567
aa(lp5313
I611
aI26
aI1
aI1
aI502
aI1
aI246
aI1
aa(lp5314
I1
aI29
aI163
aI1
aI155
aI1
aa(lp5315
I272
aa(lp5316
I5
aI56
aI521
aI1
aI15
aI23
aI1
aa(lp5317
I1
aI227
aI1
aI3
aa(lp5318
I1
aI200
aI1
aI6
aa(lp5319
I1
aI227
aI16
aI1
aa(lp5320
I1
aa(lp5321
I30
aI35
aI48
aI4
aI117
aa(lp5322
I743
aI31
aa(lp5323
I817
aI267
aI7
aI5
aa(lp5324
I1
aI1
aa(lp5325
I46
aI7
aI1
aI30
aI701
aI4
aI2
aI66
aa(lp5326
a(lp5327
I6
aI499
aI36
aI3
aI28
aI145
aI545
aI1
aa(lp5328
I1
aa(lp5329
I202
aa(lp5330
I1
aI1
aI326
aI7
aI1
aI1
aI2
aI876
aa(lp5331
I1
aI2
aa(lp5332
I1
aI3
aa(lp5333
I4
aI11
aI104
aI1
aa(lp5334
I4
aI7
aI26
aI671
aI2
aa(lp5335
I44
aI1
aI39
aI36
aI91
aa(lp5336
I1
aI1
aI7
aI4
aI1
aI671
aa(lp5337
I4
aI48
aI25
aI1
aI43
aI1
aI1
aa(lp5338
I66
aI4
aI11
aI650
aI2
aa(lp5339
I42
aI351
aI4
aI34
aI2
aa(lp5340
I4
aI143
aI1
aI556
aI5
aI17
aa(lp5341
I177
aa(lp5342
I1
aI867
aI1
aa(lp5343
I507
aI7
aI28
aI604
aI1
aI2
aI40
aa(lp5344
I1
aa(lp5345
I58
aI1
aa(lp5346
I196
aI146
aI70
aI673
aa(lp5347
I693
aI70
aI1
aI16
aI1
aa(lp5348
I1
aa(lp5349
I7
aI2
aI755
aa(lp5350
I32
aI2
aI39
aI1
aI1
aa(lp5351
I4
aI14
aI1
aI3
aa(lp5352
I1
aa(lp5353
I5
aI7
aI32
aI284
aI36
aI10
aI41
aI551
aI2
aI35
aa(lp5354
I1
aI304
aa(lp5355
I129
aa(lp5356
I4
aI12
aI20
aI43
aI1
aI181
aa(lp5357
I36
aI75
aI860
aa(lp5358
I1
aI1
aI1
aI654
aI1
aa(lp5359
I36
aI1
aI3
aI9
aI1
aa(lp5360
I17
aI55
aI182
aa(lp5361
I7
aI6
aI1
aI2
aI481
aa(lp5362
I1
aa(lp5363
I17
aI55
aI97
aI1
aI1
aI4
aI3
aa(lp5364
I1
aI1
aI190
aI79
aI234
aI1
aI1
aI3
aa(lp5365
I59
aa(lp5366
I17
aI182
aa(lp5367
I17
aI182
aI182
aa(lp5368
I17
aI55
aa(lp5369
I1
aI53
aI1
aI2
aI1
aa(lp5370
I5
aI7
aI1
aI518
aI1
aI5
aa(lp5371
I35
aI82
aI9
aI1
aI566
aI1
aI30
aI2
aI1
aa(lp5372
I4
aI12
aI81
aI1
aI129
aa(lp5373
I5
aI72
aI11
aI110
aI7
aI8
aa(lp5374
I418
aI37
aI1
aI88
aI5
aI2
aI1
aI8
aa(lp5375
I4
aI321
aI1
aI1
aI2
aI29
aa(lp5376
I5
aI12
aI81
aI1
aa(lp5377
I1
aI1
aa(lp5378
I1
aI4
aI14
aI1
aI3
aa(lp5379
I129
aI159
aa(lp5380
I65
aI3
aI1
aI1
aa(lp5381
I130
aI4
aI439
aI42
aa(lp5382
I68
aI2
aa(lp5383
I1
aa(lp5384
I89
aI89
aI17
aa(lp5385
I75
aI438
aI1
aI12
aI207
aI100
aI808
aI1
aa(lp5386
I5
aI20
aI1
aI288
aI18
aa(lp5387
I1
aI42
aI1
aa(lp5388
I142
aI1
aI232
aI14
aI1
aI8
aI62
aa(lp5389
I1
aI1
aa(lp5390
I5
aI238
aI15
aI831
aI10
aa(lp5391
I15
aI831
aI11
aI71
aI1
aI880
aa(lp5392
I4
aI213
aI15
aI1
aI1
aa(lp5393
I633
aI21
aI1
aI554
aa(lp5394
I23
aI1
aI6
aa(lp5395
I1
aI1
aI297
aa(lp5396
I58
aI1
aI1
aI7
aI116
aa(lp5397
I1
aI3
aI7
aI1
aa(lp5398
I1
aI4
aI1
aI1
aI194
aI6
aa(lp5399
I594
aI1
aI79
aI1
aI359
aI203
aI40
aa(lp5400
I180
aI58
aI6
aa(lp5401
a(lp5402
I4
aI1
aI546
aI1
aa(lp5403
a(lp5404
I144
aI48
aI173
aI1
aa(lp5405
I66
aI4
aI11
aI383
aa(lp5406
I375
aI1
aa(lp5407
I1
aI83
aa(lp5408
I11
aI569
aI1
aa(lp5409
I1
aI1
aa(lp5410
I7
aI885
aI86
aI41
aI666
aI727
aI6
aa(lp5411
I387
aI1
aa(lp5412
I1
aI829
aa(lp5413
I1
aI742
aI59
aa(lp5414
I1
aI14
aI137
aa(lp5415
I90
aI47
aI3
aI2
aI35
aa(lp5416
I85
aI54
aI26
aI461
aI666
aI10
aa(lp5417
I1
aI710
aI1
aI1
aI455
aI7
aI885
aa(lp5418
I1
aI90
aI1
aI1
aI3
aa(lp5419
I793
aI1
aI471
aI3
aa(lp5420
I1
aI3
aI17
aI4
aI78
aI101
aI11
aI1
aa(lp5421
I1
aI34
aI104
aI167
aI10
aa(lp5422
I415
aI368
aI36
aI382
aI1
aI4
aa(lp5423
I475
aI21
aI92
aI238
aI343
aa(lp5424
I22
aI1
aI2
aa(lp5425
I1
aI18
aI368
aI4
aI380
aI105
aI98
aI2
aa(lp5426
I1
aI62
aa(lp5427
I42
aI826
aa(lp5428
I56
aI38
aa(lp5429
I1
aI1
aI1
aI210
aI20
aI318
aa(lp5430
I1
aI1
aI4
aI1
aI819
aI6
aa(lp5431
I240
aa(lp5432
I1
aI6
aa(lp5433
I1
aI1
aI5
aI1
aI1
aI1
aa(lp5434
I85
aI11
aI1
aI18
aa(lp5435
I55
aI27
aI401
aI2
aI4
aI1
aa(lp5436
I130
aI4
aI1
aI1
aI695
aI5
aI83
aa(lp5437
I258
aI452
aI695
aI4
aI83
aa(lp5438
a(lp5439
I122
aI362
aI122
aI362
aa(lp5440
I1
aa(lp5441
I4
aI1
aI327
aI5
aI318
aI2
aI688
aI3
aa(lp5442
I1
aI594
aI281
aI1
aa(lp5443
I1
aa(lp5444
a(lp5445
I42
aI17
aa(lp5446
I17
aI715
aI132
aI89
aI1
aI40
aa(lp5447
I1
aI594
aI281
aa(lp5448
I59
aa(lp5449
I1
aI594
aI281
aI1
aa(lp5450
I338
aI1
aa(lp5451
I66
aI1
aa(lp5452
I19
aI93
aI135
aI508
aI68
aI529
aI2
aI9
aI773
aI102
aa(lp5453
I1
aI784
aI5
aI1
aI4
aI22
aa(lp5454
I1
aa(lp5455
I9
aI2
aI330
aa(lp5456
I17
aa(lp5457
I17
aa(lp5458
I1
aI5
aI163
aI34
aI17
aI40
aa(lp5459
I66
aa(lp5460
I1
aa(lp5461
I597
aa(lp5462
I1
aI1
aI1
aI241
aI1
aa(lp5463
I208
aI4
aI7
aI559
aI487
aI1
aa(lp5464
I1
aI36
aI1
aI9
aa(lp5465
I200
aI1
aI185
aI54
aI5
aa(lp5466
I1
aI98
aa(lp5467
I39
aI57
aI56
aI5
aI1
aa(lp5468
I1
aI26
aI670
aI439
aa(lp5469
I1
aI1
aI1
aa(lp5470
I274
aI1
aI1
aI9
aI441
aI2
aI1
aI8
aa(lp5471
I1
aI7
aI1
aI1
aI2
aI13
aa(lp5472
I1
aI107
aI1
aI1
aI1
aI1
aI1
aI2
aa(lp5473
I1
aa(lp5474
I5
aI7
aI35
aI227
aI107
aI6
aa(lp5475
I1
aI7
aI1
aI51
aa(lp5476
I1
aI40
aI5
aI1
aa(lp5477
I472
aI1
aI86
aa(lp5478
I1
aI30
aa(lp5479
I312
aa(lp5480
I39
aI24
aI347
aI4
aI286
aI149
aI10
aI463
aa(lp5481
I4
aI178
aI160
aI26
aI1
aI134
aI16
aI347
aa(lp5482
I44
aI87
aI24
aI347
aI4
aI14
aI24
aI1
aa(lp5483
I1
aI70
aI4
aI169
aI347
aa(lp5484
I5
aI27
aI1
aI3
aa(lp5485
I5
aI1
aI4
aI14
aI607
aI6
aa(lp5486
I9
aI1
aI607
aI4
aI38
aI22
aa(lp5487
I7
aI5
aI197
aI2
aI6
aa(lp5488
I1
aI5
aI27
aI309
aI104
aI1
aI6
aa(lp5489
I1
aI6
aI22
aa(lp5490
I1
aI5
aI78
aI13
aI22
aa(lp5491
I379
aI2
aI39
aI5
aI143
aI1
aI6
aI22
aa(lp5492
I27
aI14
aI881
aI10
aa(lp5493
I1
aI2
aI16
aI31
aI9
aI1
aa(lp5494
I1
aI766
aa(lp5495
I282
aI1
aI15
aI282
aI3
aI10
aa(lp5496
a(lp5497
I1
aa(lp5498
I260
aa(lp5499
I300
aI14
aI1
aI3
aa(lp5500
I84
aI2
aa(lp5501
I1
aa(lp5502
I27
aI1
aI1
aa(lp5503
I17
aI182
aa(lp5504
I310
aI71
aI1
aI1
aI1
aI1
aa(lp5505
I1
aI9
aI2
aa(lp5506
I1
aa(lp5507
I96
aI352
aa(lp5508
I344
aI139
aI229
aa(lp5509
I1
aI447
aI1
aI113
aa(lp5510
I1
aI335
aI8
aI1
aa(lp5511
I814
aI175
aI91
aI22
aa(lp5512
I1
aI14
aI359
aI589
aa(lp5513
I4
aI78
aI329
aI7
aI1
aI11
aI1
aI2
aI1
aa(lp5514
I5
aI1
aI298
aI1
aI685
aa(lp5515
I401
aI31
aI18
aa(lp5516
I1
aI46
aI181
aa(lp5517
I7
aI4
aI2
aI618
aI513
aI685
aI1
aI47
aI80
aI3
aa(lp5518
I133
aI1
aa(lp5519
I329
aI7
aa(lp5520
I19
aI4
aI34
aI1
aI5
aI327
aI1
aa(lp5521
I1
aI51
aI1
aI51
aa(lp5522
I1
aa(lp5523
I42
aI1
aa(lp5524
I55
aI182
aa(lp5525
I825
aI4
aI39
aI1
aa(lp5526
I44
aI6
aI1
aI1
aa(lp5527
I1
aI73
aI584
aI3
aa(lp5528
I1
aa(lp5529
I5
aI28
aI21
aI4
aI86
aI13
aa(lp5530
I27
aI16
aI111
aI5
aI1
aI3
aI1
aa(lp5531
I161
aI647
aI200
aI1
aa(lp5532
I164
aI1
aI8
aa(lp5533
I246
aI483
aI7
aI4
aI2
aI246
aI252
aa(lp5534
I228
aa(lp5535
I1
aI20
aI483
aI560
aI365
aI137
aa(lp5536
I31
aI6
aI22
aa(lp5537
I1
aI3
aI165
aa(lp5538
I44
aI4
aI2
aI1
aI1
aI2
aI1
aa(lp5539
I96
aI7
aI1
aI1
aa(lp5540
I27
aa(lp5541
I210
aI12
aI33
aI6
aa(lp5542
I322
aI1
aI1
aI743
aa(lp5543
I875
aI185
aI1
aI373
aI22
aI24
aI767
aI6
aa(lp5544
I149
aI10
aI463
aI4
aI7
aI1
aI3
aa(lp5545
I482
aI46
aI606
aI2
aI1
aI33
aI1
aa(lp5546
I7
aI6
aI7
aI6
aI17
aa(lp5547
I1
aI2
aI1
aa(lp5548
I1
aI55
aa(lp5549
I1
aI6
aI179
aI92
aI141
aI13
aa(lp5550
I459
aI459
aI4
aI555
aI18
aa(lp5551
I1
aI318
aI1
aI99
aa(lp5552
I1
aI41
aI1
aI6
aI22
aa(lp5553
I20
aI1
aI2
aI237
aI329
aI7
aI681
aa(lp5554
I1
aI37
aI1
aI30
aI818
aI2
aI131
aI38
aa(lp5555
I37
aI8
aI537
aI1
aI71
aa(lp5556
I131
aI1
aI3
aI9
aI18
aa(lp5557
I1
aI73
aI1
aI1
aI3
aI51
aa(lp5558
I1
aI1
aI1
aI2
aI323
aI40
aa(lp5559
I192
aI29
aI7
aI5
aI10
aa(lp5560
I39
aI33
aI1
aI2
aI1
aI26
aa(lp5561
I1
aI41
aI1
aI40
aa(lp5562
I1
aa(lp5563
I401
aI1
aI1
aI1
aI830
aa(lp5564
I55
aa(lp5565
I1
aa(lp5566
I1
aI1
aI1
aa(lp5567
I415
aI6
aI649
aI1
aI1
aI3
aI317
aI1
aa(lp5568
I1
aI32
aI425
aI184
aI3
aa(lp5569
I1
aI3
aa(lp5570
I50
aI555
aI1
aI3
aI757
aI63
aa(lp5571
I122
aI362
aa(lp5572
I1
aa(lp5573
I7
aI2
aI6
aa(lp5574
I1
aI3
aI694
aI241
aI3
aa(lp5575
I138
aI80
aI1
aI775
aa(lp5576
I44
aI560
aI11
aI1
aI83
aa(lp5577
I130
aI4
aI1
aI1
aa(lp5578
I1
aI295
aI559
aI226
aI22
aa(lp5579
I559
aI304
aI6
aI559
aI304
aa(lp5580
I121
aI7
aI30
aI74
aI205
aI1
aI2
aI10
aa(lp5581
I1
aI715
aa(lp5582
I85
aI161
aI155
aI236
aI10
aa(lp5583
I203
aI1
aI21
aa(lp5584
I1
aI1
aI38
aa(lp5585
I42
aI1
aI1
aI1
aI1
aI1
aa(lp5586
I725
aI16
aI135
aI69
aI187
aI11
aI1
aI3
aa(lp5587
I1
aI14
aI138
aI76
aa(lp5588
I15
aI1
aI2
aI32
aI686
aI1
aI263
aa(lp5589
I1
aI215
aI11
aa(lp5590
I278
aI7
aI215
aI4
aI172
aI1
aI28
aI147
aI1
aI13
aa(lp5591
I5
aI7
aa(lp5592
I63
aa(lp5593
I158
aI7
aI1
aa(lp5594
a(lp5595
a(lp5596
a(lp5597
I17
aI7
aI2
aa(lp5598
a(lp5599
a(lp5600
I399
aI1
aa(lp5601
I1
aa(lp5602
I28
aI75
aI21
aI155
aI1
aI97
aa(lp5603
I31
aI8
aa(lp5604
I65
aI4
aI1
aI1
aI1
aI9
aI10
aa(lp5605
I4
aI52
aI194
aI7
aI271
aa(lp5606
I4
aI7
aI1
aI115
aI12
aI285
aI1
aI2
aa(lp5607
I230
aI189
aI16
aI120
aa(lp5608
I31
aI7
aI1
aa(lp5609
I9
aI8
aI61
aI60
aI64
aI61
aa(lp5610
I402
aI256
aI1
aI7
aI1
aa(lp5611
I103
aI8
aI22
aa(lp5612
I130
aI95
aI54
aI4
aI1
aI301
aI846
aI54
aI4
aI38
aa(lp5613
I65
aI1
aI1
aI534
aI255
aI3
aa(lp5614
I1
aI5
aI305
aI6
aa(lp5615
I14
aI53
aI5
aI331
aa(lp5616
I1
aI1
aI20
aI1
aI2
aI53
aI1
aI325
aa(lp5617
I440
aI43
aI1
aI1
aI70
aI1
aa(lp5618
I1
aI11
aI39
aI1
aI844
aI10
aa(lp5619
I5
aI1
aI1
aI10
aa(lp5620
I382
aI38
aa(lp5621
I4
aI1
aI1
aa(lp5622
I120
aI6
aI294
aI75
aI1
aa(lp5623
I73
aI1
aI3
aI1
aI1
aI223
aI1
aa(lp5624
I4
aI12
aI1
aa(lp5625
I1
aI99
aI1
aI8
aa(lp5626
I118
aI27
aI1
aI1
aI199
aa(lp5627
I321
aI68
aI2
aa(lp5628
I19
aI1
aI2
aI105
aI7
aI1
aI10
aI9
aI1
aa(lp5629
I27
aI175
aI1
aI2
aI1
aI1
aa(lp5630
I1
aI1
aa(lp5631
I32
aI2
aI237
aI1
aI1
aa(lp5632
I121
aI452
aI7
aI1
aI468
aI3
aa(lp5633
I121
aI7
aI1
aI1
aI1
aI2
aI8
aa(lp5634
I704
aI2
aa(lp5635
I1
aI2
aI1
aI468
aI61
aI60
aI64
aI61
aa(lp5636
I1
aa(lp5637
I1
aI1
aa(lp5638
I4
aI12
aI704
aI2
aa(lp5639
I129
aI61
aI60
aI64
aI61
aa(lp5640
I118
aI7
aI1
aI8
aa(lp5641
I114
aI4
aI12
aI1
aI1
aI59
aI2
aI492
aa(lp5642
I4
aI1
aI2
aa(lp5643
I9
aI8
aI5
aI1
aI3
aa(lp5644
I5
aI65
aI3
aI18
aa(lp5645
I65
aI3
aa(lp5646
I121
aI106
aI21
aI466
aa(lp5647
I1
aI15
aI1
aI306
aI301
aI2
aI18
aa(lp5648
I328
aI2
aI1
aa(lp5649
I93
aI1
aI47
aI29
aI25
aI420
aI1
aI3
aI166
aa(lp5650
I37
aa(lp5651
I1
aI16
aI131
aI395
aI1
aI2
aI40
aa(lp5652
I4
aI1
aI1
aI7
aI26
aI781
aa(lp5653
I225
aI5
aI3
aa(lp5654
I1
aa(lp5655
I481
aI70
aI882
aI1
aa(lp5656
I7
aI6
aI149
aI10
aI3
aa(lp5657
I1
aI227
aa(lp5658
I1
aa(lp5659
I1
aI7
aI26
aI781
aa(lp5660
I158
aa(lp5661
I114
aI4
aI12
aI1
aI349
aI2
aa(lp5662
I1
aa(lp5663
I593
aI1
aI744
aI98
aI16
aI21
aI1
aa(lp5664
I17
aa(lp5665
I882
aI1
aI1
aI2
aa(lp5666
I169
aI21
aI2
aI43
aI1
aa(lp5667
I12
aI33
aI1
aI26
aI494
aI166
aa(lp5668
I9
aI6
aa(lp5669
I390
aI43
aI1
aI2
aI470
aI339
aa(lp5670
I4
aI185
aI2
aI1
aa(lp5671
I121
aI100
aI141
aI427
aI34
aI378
aI13
aa(lp5672
I7
aI1
aI96
aI652
aI56
aI1
aa(lp5673
I1
aI5
aI2
aI1
aI195
aI25
aI1
aI46
aa(lp5674
I4
aI48
aI25
aI530
aa(lp5675
I702
aa(lp5676
I59
aa(lp5677
I190
aa(lp5678
I1
aI3
aI61
aI60
aI64
aI61
aa(lp5679
I166
aI1
aI313
aI1
aI1
aa(lp5680
I1
aI23
aI60
aI61
aI64
aa(lp5681
I91
aI39
aI4
aI24
aI592
aa(lp5682
I1
aI1
aI61
aI60
aI64
aI61
aa(lp5683
I1
aI2
aI1
aI1
aI11
aI1
aI67
aI289
aa(lp5684
I370
aI370
aa(lp5685
I1
aI1
aI555
aI1
aa(lp5686
I1
aI6
aI5
aI143
aI1
aI3
aa(lp5687
I1
aI1
aI5
aI1
aa(lp5688
I646
aa(lp5689
I479
aa(lp5690
I126
aI4
aI375
aI1
aI27
aI1
aI2
aI718
aa(lp5691
I1
aI8
aI476
aa(lp5692
I1
aa(lp5693
I142
aI110
aa(lp5694
I851
aI3
aa(lp5695
I9
aI8
aa(lp5696
I1
aI65
aI1
aI13
aa(lp5697
I4
aI2
aI1
aI28
aI138
aI304
aI13
aI97
aa(lp5698
I531
aa(lp5699
I55
aa(lp5700
I1
aI10
aI22
aa(lp5701
I1
aa(lp5702
I1
aa(lp5703
I5
aI25
aI350
aI8
aI1
aa(lp5704
I126
aI1
aI53
aI1
aI1
aI1
aI2
aI1
aa(lp5705
I1
aa(lp5706
I52
aI1
aI3
aa(lp5707
I1
aI7
aI173
aI1
aI2
aI105
aI1
aa(lp5708
I180
aI197
aa(lp5709
I1
aI7
aI1
aI1
aI2
aa(lp5710
I730
aI275
aI812
aI176
aI43
aa(lp5711
I5
aI54
aI29
aI464
aI26
aI1
aI255
aI3
aa(lp5712
I1
aI66
aa(lp5713
I38
aI1
aa(lp5714
I5
aI2
aI283
aI795
aI3
aI800
aI1
aI6
aa(lp5715
I7
aI2
aa(lp5716
I1
aI325
aI148
aI108
aI4
aI1
aI1
aI66
aa(lp5717
I72
aI157
aI3
aa(lp5718
I591
aI1
aI7
aI271
aI10
aa(lp5719
I157
aI3
aa(lp5720
I294
aI1
aI346
aI1
aI7
aI1
aa(lp5721
I66
aI1
aI338
aa(lp5722
I580
aI1
aI526
aI294
aI90
aI214
aI69
aI3
aa(lp5723
I1
aa(lp5724
I45
aI33
aI1
aa(lp5725
I52
aI128
aI92
aI327
aI23
aI198
aI3
aa(lp5726
I1
aI1
aI109
aI180
aI1
aI1
aI115
aa(lp5727
I31
aI1
aI196
aI1
aa(lp5728
I57
aI31
aI1
aI1
aI1
aa(lp5729
I631
aa(lp5730
I37
aI1
aI8
aa(lp5731
I1
aI1
aI441
aI2
aa(lp5732
I161
aI1
aI1
aI3
aI319
aI2
aI1
aa(lp5733
I9
aI8
aI583
aI1
aI1
aa(lp5734
I328
aI4
aI465
aI1
aI1
aI1
aI3
aa(lp5735
I56
aI52
aI1
aI2
aa(lp5736
I1
aI178
aI1
aI253
aI183
aI412
aI142
aI160
aI99
aa(lp5737
I1
aI141
aa(lp5738
I238
aI115
aI20
aI200
aI468
aI1
aI3
aa(lp5739
I158
aI15
aI36
aI1
aI6
aa(lp5740
I5
aI175
aI1
aa(lp5741
I5
aI72
aI613
aI3
aa(lp5742
I1
aI7
aI1
aI618
aI79
aI1
aI718
aI2
aI1
aa(lp5743
I1
aI1
aI152
aI3
aI730
aI25
aI203
aa(lp5744
I15
aI750
aI675
aI15
aI1
aI675
aa(lp5745
I157
aI3
aa(lp5746
I5
aI7
aI4
aI1
aI2
aI539
aa(lp5747
I1
aI713
aI1
aI1
aI840
aa(lp5748
I523
aI286
aI594
aI3
aa(lp5749
I9
aI1
aa(lp5750
I28
aI500
aI1
aI30
aa(lp5751
I1
aa(lp5752
I406
aI199
aI6
aa(lp5753
I1
aI811
aI71
aI123
aI71
aI1
aa(lp5754
I1
aI3
aa(lp5755
I479
aa(lp5756
I315
aI4
aI1
aI5
aa(lp5757
I1
aa(lp5758
I1
aI88
aI1
aI88
aa(lp5759
I715
aa(lp5760
I201
aI4
aI34
aI1
aI2
aa(lp5761
I548
aI3
aI194
aI695
aI67
aa(lp5762
I1
aa(lp5763
I1
aI1
aI6
aa(lp5764
I22
aI2
aI209
aI24
aI1
aI13
aa(lp5765
I1
aI1
aa(lp5766
I1
aI31
aI13
aa(lp5767
I4
aI28
aI10
aI2
aI1
aI1
aa(lp5768
I48
aI445
aI4
aI2
aI236
aI225
aI4
aI2
aI238
aa(lp5769
I548
aI3
aI143
aI14
aI1
aI11
aI183
aI3
aI1
aI6
aa(lp5770
I10
aI2
aI242
aI1
aa(lp5771
I1
aI23
aI13
aa(lp5772
I107
aI423
aa(lp5773
I107
aI423
aI393
aI80
aI2
aI1
aI285
aI1
aI185
aa(lp5774
I4
aI12
aI1
aI813
aI3
aI1
aI59
aa(lp5775
I1
aa(lp5776
I105
aI75
aI37
aI38
aI4
aI369
aI1
aI263
aa(lp5777
I1
aI2
aI1
aI16
aI24
aI356
aI38
aa(lp5778
I42
aa(lp5779
I19
aI203
aI8
aI1
aI148
aI34
aI81
aa(lp5780
I42
aa(lp5781
I125
aI1
aI63
aa(lp5782
I83
aI155
aI4
aI1
aa(lp5783
I1
aI1
aI195
aa(lp5784
I1
aa(lp5785
I374
aI661
aa(lp5786
I661
aI468
aI13
aI331
aI1
aI810
aa(lp5787
I1
aI8
aI408
aI13
aI12
aI20
aI128
aa(lp5788
I5
aI26
aI1
aI17
aa(lp5789
I467
aI20
aI472
aI1
aI11
aI834
aI2
aI533
aa(lp5790
I7
aI2
aI240
aI7
aI1
aI2
aI9
aI1
aI859
aa(lp5791
I45
aI1
aI8
aa(lp5792
I1
aI3
aI1
aI1
aa(lp5793
I7
aI2
aI9
aI1
aI6
aa(lp5794
I158
aI58
aI1
aa(lp5795
I5
aI212
aI23
aa(lp5796
I4
aI79
aI1
aI1
aa(lp5797
I794
aI106
aI685
aI1
aI17
aa(lp5798
I311
aI13
aa(lp5799
I770
aI47
aI116
aI1
aI681
aa(lp5800
I426
aa(lp5801
I426
aI1
aa(lp5802
I54
aI1
aI14
aI54
aI1
aI65
aa(lp5803
I1
aI364
aI24
aI356
aI2
aa(lp5804
I654
aI1
aa(lp5805
a(lp5806
I9
aI8
aI4
aI14
aI1
aI2
aI1
aI8
aa(lp5807
I21
aI6
aI119
aI1
aI13
aa(lp5808
I493
aI1
aI736
aI79
aI65
aI2
aa(lp5809
I493
aI29
aI1
aI6
aa(lp5810
I817
aa(lp5811
I80
aI1
aI1
aI3
aa(lp5812
I426
aI1
aI1
aI7
aI1
aI2
aI1
aa(lp5813
I1
aI1
aa(lp5814
I1
aI25
aa(lp5815
I4
aI12
aI24
aI1
aa(lp5816
I1
aI15
aI1
aI1
aI1
aI13
aI1
aa(lp5817
I5
aI1
aI81
aI67
aI14
aI1
aI1
aI113
aI6
aa(lp5818
I516
aa(lp5819
I432
aI1
aI28
aI75
aI460
aI69
aa(lp5820
I1
aI1
aI1
aI6
aa(lp5821
I1
aa(lp5822
I252
aI7
aI1
aI4
aI12
aI326
aI1
aI1
aa(lp5823
I24
aI98
aa(lp5824
I45
aI24
aI15
aI1
aa(lp5825
I1
aI104
aI15
aI1
aI28
aI11
aI319
aI103
aa(lp5826
I160
aI2
aI266
aI3
aI99
aI837
aa(lp5827
I228
aa(lp5828
a(lp5829
I42
aa(lp5830
I114
aI12
aI21
aI224
aI345
aI1
aI71
aI623
aa(lp5831
I58
aI1
aI4
aI390
aI2
aa(lp5832
I52
aI26
aI491
aI1
aI226
aa(lp5833
I622
aI1
aI15
aI868
aI643
aI10
aa(lp5834
I1
aI28
aI21
aI1
aI253
aa(lp5835
I184
aI326
aI1
aI1
aI1
aa(lp5836
I351
aI195
aa(lp5837
I66
aI1
aI5
aI259
aI2
aa(lp5838
I19
aI606
aI7
aI32
aI768
aI2
aI458
aa(lp5839
I1
aI148
aI34
aI183
aa(lp5840
I677
aI605
aI125
aI5
aI17
aa(lp5841
I27
aI19
aI4
aI72
aI1
aI3
aa(lp5842
I243
aI303
aI78
aI4
aI7
aI539
aI192
aI197
aa(lp5843
I209
aI446
aI39
aI26
aI539
aI40
aI1
aa(lp5844
I43
aI5
aI1
aI2
aa(lp5845
I1
aI297
aI766
aa(lp5846
I35
aI99
aI23
aI8
aa(lp5847
I96
aI30
aI2
aI140
aI1
aI1
aI1
aa(lp5848
I7
aI1
aI1
aa(lp5849
I4
aI21
aI1
aI6
aI63
aa(lp5850
I760
aI760
aa(lp5851
I44
aI5
aI1
aa(lp5852
I210
aI4
aI1
aI100
aI5
aI1
aI2
aI3
aa(lp5853
I1
aI1
aI12
aI28
aI2
aI184
aI6
aa(lp5854
I1
aa(lp5855
I11
aI112
aI11
aI112
aI27
aI4
aI178
aI112
aI80
aa(lp5856
I9
aI2
aI132
aI249
aI16
aI1
aI76
aa(lp5857
I36
aa(lp5858
I17
aI1
aa(lp5859
I1
aI404
aa(lp5860
I17
aI343
aa(lp5861
I1
aI2
aI132
aa(lp5862
I4
aI57
aI20
aI1
aI221
aI6
aa(lp5863
I17
aI1
aI1
aI1
aa(lp5864
I44
aI9
aI13
aI215
aI3
aI40
aa(lp5865
I332
aI1
aa(lp5866
I44
aI1
aI16
aI1
aI315
aa(lp5867
I1
aI1
aI23
aI1
aI1
aI2
aI441
aI132
aa(lp5868
I45
aI9
aI8
aI4
aI1
aI3
aa(lp5869
I512
aI5
aI157
aI3
aI133
aI11
aI112
aI97
aa(lp5870
I49
aI302
aI836
aI1
aI3
aI13
aa(lp5871
I1
aI267
aI5
aI32
aI257
aI4
aI1
aa(lp5872
I45
aI5
aI20
aI573
aI5
aI2
aI1
aa(lp5873
I44
aI9
aI13
aI38
aa(lp5874
I19
aI14
aI1
aI53
aI1
aI50
aI316
aI2
aa(lp5875
I132
aI1
aI226
aI622
aa(lp5876
I39
aI39
aI32
aI324
aI38
aa(lp5877
I364
aI16
aI1
aI536
aa(lp5878
I120
aI6
aI324
aI2
aI1
aI119
aI15
aI856
aI65
aa(lp5879
I7
aI40
aI7
aI40
aI19
aI117
aI108
aI856
aI1
aa(lp5880
I45
aa(lp5881
I1
aI93
aI608
aa(lp5882
I1
aI409
aI822
aI14
aI140
aI3
aa(lp5883
I1
aI2
aa(lp5884
I4
aI1
aI119
aI152
aa(lp5885
I168
aI168
aa(lp5886
I17
aI1
aI1
aa(lp5887
I1
aa(lp5888
I1
aI21
aI16
aI117
aI1
aI3
aa(lp5889
I1
aI4
aI1
aI353
aI3
aI59
aa(lp5890
I15
aI1
aa(lp5891
I6
aa(lp5892
I96
aI147
aI1
aa(lp5893
I1
aI6
aI28
aI160
aI640
aa(lp5894
I1
aI30
aI1
aI280
aI845
aI132
aa(lp5895
I503
aI98
aa(lp5896
I503
aI85
aI883
aI25
aI1
aI76
aa(lp5897
I17
aI30
aI40
aI840
aa(lp5898
I39
aI77
aI48
aI6
aa(lp5899
I45
aI121
aI1
aI4
aI6
aa(lp5900
I1
aI835
aI16
aI70
aI5
aI35
aI788
aa(lp5901
I55
aa(lp5902
I260
aI23
aI2
aI389
aI3
aa(lp5903
I28
aI82
aI699
aI10
aa(lp5904
I17
aa(lp5905
I1
aa(lp5906
I228
aI1
aa(lp5907
I25
aI1
aI340
aI77
aI223
aI1
aa(lp5908
I274
aI274
aa(lp5909
I4
aI12
aI1
aI1
aI36
aI391
aI1
aI514
aa(lp5910
I11
aI310
aI5
aI841
aI270
aI133
aa(lp5911
I50
aI806
aI2
aI111
aI1
aI47
aI841
aI3
aa(lp5912
I489
aI1
aI16
aI443
aI3
aa(lp5913
I19
aI14
aI652
aI88
aI15
aI1
aI3
aI142
aI160
aa(lp5914
I44
aI6
aI455
aI7
aI1
aI88
aI1
aI3
aa(lp5915
I11
aI310
aI11
aI310
aa(lp5916
I1
aI757
aI4
aI72
aI867
aI3
aI451
aa(lp5917
I52
aI13
aa(lp5918
I311
aI13
aI11
aI310
aa(lp5919
I1
aI841
aa(lp5920
I4
aI7
aI275
aI640
aI43
aI2
aa(lp5921
I133
aI1
aa(lp5922
I117
aI1
aI35
aI826
aI3
aa(lp5923
I19
aI14
aI1
aa(lp5924
I19
aI4
aI1
aI3
aI359
aI313
aI217
aI1
aI640
aa(lp5925
I279
aI3
aI133
aI22
aa(lp5926
I4
aI12
aI203
aI1
aa(lp5927
I11
aI25
aI52
aI215
aa(lp5928
I56
aI623
aI495
aI14
aI96
aI1
aI1
aa(lp5929
I49
aI797
aa(lp5930
I6
aI371
aa(lp5931
I371
aI450
aa(lp5932
I332
aI31
aI1
aI1
aa(lp5933
I19
aI4
aI1
aI1
aa(lp5934
I17
aI9
aI8
aa(lp5935
I1
aI5
aI12
aI380
aI15
aI1
aI2
aI6
aa(lp5936
I269
aI42
aa(lp5937
I1
aI85
aI576
aI26
aI1
aI818
aI13
aa(lp5938
I1
aa(lp5939
I1
aI7
aI1
aI13
aa(lp5940
I1
aI41
aI1
aI2
aa(lp5941
I1
aa(lp5942
I67
aI211
aI16
aI135
aI36
aI270
aI2
aI35
aa(lp5943
I1
aI211
aI1
aI16
aI15
aa(lp5944
I1
aI202
aI534
aI54
aI6
aa(lp5945
I134
aI1
aI289
aI432
aI1
aa(lp5946
I262
aI30
aI486
aI1
aa(lp5947
I194
aI1
aI1
aa(lp5948
I329
aI709
aI14
aI1
aI3
aI5
aI412
aI9
aI6
aa(lp5949
I278
aI1
aa(lp5950
I1
aI295
aI2
aa(lp5951
I179
aI474
aI474
aI810
aI3
aa(lp5952
I184
aI23
aI2
aa(lp5953
I731
aI63
aa(lp5954
a(lp5955
I332
aI807
aI26
aI9
aI638
aI349
aI2
aI35
aa(lp5956
I19
aI14
aI1
aa(lp5957
I41
aI1
aI1
aI3
aI63
aa(lp5958
I63
aa(lp5959
I1
aI63
aa(lp5960
I4
aI7
aI35
aI320
aI1
aI1
aa(lp5961
I162
aI124
aI1
aI317
aI1
aa(lp5962
I244
aI27
aI1
aI12
aI216
aI11
aI265
aI3
aa(lp5963
I4
aI1
aI143
aI86
aI3
aI25
aI3
aa(lp5964
I54
aI5
aI1
aI1
aI9
aI8
aa(lp5965
I1
aI4
aI27
aI143
aI1
aa(lp5966
I19
aI1
aI216
aa(lp5967
I4
aI820
aI7
aI5
aI878
aI4
aI1
aI2
aI1
aa(lp5968
I821
aI787
aI536
aa(lp5969
I1
aI7
aI5
aI787
aI2
aI536
aa(lp5970
I486
aI179
aI1
aI1
aI1
aI1
aI1
aa(lp5971
I1
aI6
aa(lp5972
I821
aI787
aa(lp5973
I4
aI1
aI835
aI279
aI16
aI372
aI82
aI9
aI8
aa(lp5974
I762
aI1
aI2
aI12
aI127
aI1
aa(lp5975
I557
aI1
aa(lp5976
I172
aI868
aI32
aI491
aa(lp5977
I320
aI320
aI152
aI76
aa(lp5978
I708
aa(lp5979
I1
aI1
aI722
aI14
aI153
aI69
aa(lp5980
I1
aa(lp5981
I72
aI11
aI324
aI3
aI6
aa(lp5982
I6
aI371
aa(lp5983
I52
aI106
aI72
aI621
aI3
aa(lp5984
I393
aI134
aI16
aI110
aI171
aI152
aI76
aa(lp5985
I14
aI1
aI3
aI12
aI269
aI1
aI3
aa(lp5986
I17
aI1
aI25
aI1
aI26
aI816
aI17
aa(lp5987
I15
aI4
aI28
aI322
aI18
aa(lp5988
I48
aI70
aI307
aI136
aI2
aI35
aa(lp5989
I19
aI410
aI1
aI8
aa(lp5990
I762
aI131
aI40
aa(lp5991
I66
aa(lp5992
a(lp5993
I419
aa(lp5994
a(lp5995
I5
aI78
aI13
aa(lp5996
I174
aI211
aI13
aI6
aa(lp5997
I211
aI765
aa(lp5998
I211
aI20
aI496
aa(lp5999
I1
aI1
aI193
aI345
aI9
aI403
aI536
aa(lp6000
I1
aI47
aI18
aI1
aI16
aI843
aI3
aa(lp6001
I843
aI5
aI16
aI1
aI13
aa(lp6002
I5
aI28
aI872
aI16
aI47
aI1
aI3
aI1
aa(lp6003
I1
aI12
aI47
aI2
aI458
aI17
aa(lp6004
I41
aI582
aI1
aI1
aI19
aI65
aa(lp6005
I4
aI1
aI14
aI20
aI1
aI1
aI1
aa(lp6006
a(lp6007
I760
aa(lp6008
I50
aI1
aa(lp6009
I4
aI683
aI2
aa(lp6010
I144
aa(lp6011
I4
aI289
aI1
aI2
aI885
aI1
aI1
aa(lp6012
I4
aI154
aI345
aI2
aI559
aI168
aa(lp6013
I1
aI2
aa(lp6014
I766
aI1
aI2
aI1
aI12
aI32
aI168
aa(lp6015
I1
aI5
aI419
aI254
aI757
aa(lp6016
I584
aa(lp6017
I6
aI371
aa(lp6018
I1
aI7
aI233
aI356
aI3
aI6
aI17
aa(lp6019
I6
aI371
aa(lp6020
I152
aI65
aI1
aI7
aI32
aI621
aI82
aa(lp6021
I1
aa(lp6022
I1
aa(lp6023
I393
aI16
aI153
aI69
aI51
aI17
aa(lp6024
I9
aI195
aa(lp6025
I1
aI1
aI1
aI1
aI25
aI264
aI2
aa(lp6026
I284
aI331
aI1
aI6
aa(lp6027
I1
aI1
aa(lp6028
I45
aI459
aI1
aI13
aa(lp6029
I28
aI21
aI110
aI2
aI35
aa(lp6030
I496
aI1
aa(lp6031
I63
aI4
aI1
aI1
aI546
aa(lp6032
I1
aI161
aI69
aI21
aI69
aI28
aI138
aI2
aa(lp6033
I316
aI260
aI8
aI1
aI113
aa(lp6034
I28
aI21
aI852
aI13
aI17
aI284
aI253
aI652
aI1
aI3
aa(lp6035
I50
aI42
aI51
aa(lp6036
I85
aI1
aI54
aI99
aI1
aI10
aa(lp6037
I125
aa(lp6038
I15
aI1
aI6
aa(lp6039
I1
aI54
aI1
aI3
aa(lp6040
I121
aI440
aI5
aI2
aI1
aI319
aI6
aa(lp6041
I855
aI1
aI6
aa(lp6042
I282
aI13
aa(lp6043
I282
aI1
aI520
aI1
aI6
aa(lp6044
I126
aI5
aI1
aI137
aI79
aI229
aa(lp6045
I407
aI1
aa(lp6046
I1
aI1
aI5
aI1
aI541
aa(lp6047
I1
aI1
aI1
aI11
aI541
aa(lp6048
I142
aI1
aI1
aI1
aI1
aa(lp6049
I17
aI182
aI1
aI5
aI7
aI4
aI418
aa(lp6050
I1
aI1
aa(lp6051
I19
aI14
aI1
aI1
aI51
aa(lp6052
I23
aI214
aa(lp6053
I1
aI1
aI2
aI214
aa(lp6054
I1
aa(lp6055
I65
aI2
aI23
aI1
aa(lp6056
I1
aI3
aI1
aI555
aI1
aI2
aa(lp6057
I664
aI2
aI322
aI1
aa(lp6058
I1
aI43
aI11
aI546
aa(lp6059
I1
aI1
aI1
aI108
aI467
aI77
aI54
aI745
aI151
aa(lp6060
I22
aI5
aI75
aI324
aa(lp6061
I1
aa(lp6062
I4
aI12
aI286
aI110
aI3
aa(lp6063
I1
aI11
aI1
aI1
aI602
aI6
aa(lp6064
I158
aI434
aI13
aa(lp6065
I1
aa(lp6066
I1
aI1
aa(lp6067
I1
aI115
aI115
aI260
aI59
aa(lp6068
I1
aI6
aI1
aa(lp6069
I130
aI88
aI282
aI13
aa(lp6070
I1
aI1
aI1
aI130
aI83
aa(lp6071
I758
aI370
aI370
aI758
aa(lp6072
I4
aI16
aI21
aI1
aa(lp6073
I50
aI9
aI358
aI1
aa(lp6074
I90
aI301
aI265
aI54
aI5
aI3
aa(lp6075
I344
aI3
aI22
aa(lp6076
I50
aI432
aI7
aI1
aI2
aI195
aa(lp6077
I269
aI3
aI358
aI53
aI14
aI628
aa(lp6078
I1
aI520
aI482
aI56
aI5
aI1
aa(lp6079
I23
aI91
aa(lp6080
I38
aI597
aI326
aI244
aI4
aI28
aI838
aI1
aa(lp6081
I1
aI9
aI1
aa(lp6082
I1
aI1
aa(lp6083
I850
aI79
aI1
aI79
aI1
aI14
aI265
aI3
aa(lp6084
I1
aI675
aa(lp6085
I66
aI170
aI4
aI649
aI618
aI301
aI53
aa(lp6086
I17
aI170
aI5
aI351
aa(lp6087
I172
aI116
aa(lp6088
I512
aI596
aI232
aa(lp6089
I240
aI7
aI98
aI91
aI1
aa(lp6090
I116
aI116
aI16
aI9
aI39
aI1
aI1
aI1
aa(lp6091
I5
aI296
aI47
aI6
aa(lp6092
I50
aI201
aI659
aI49
aa(lp6093
I1
aI29
aI1
aI3
aa(lp6094
I1
aI2
aI1
aI754
aI70
aI524
aa(lp6095
I36
aI1
aI1
aa(lp6096
I1
aI67
aI2
aI407
aI16
aI540
aI3
aI17
aa(lp6097
I503
aI6
aI15
aI1
aI188
aa(lp6098
I61
aI60
aI64
aI61
aa(lp6099
I60
aI64
aa(lp6100
I19
aI41
aI34
aI15
aI1
aI2
aI1
aI18
aa(lp6101
I66
aI7
aI1
aI1
aI2
aa(lp6102
I139
aI273
aa(lp6103
I1
aI47
aI244
aI1
aI1
aa(lp6104
I375
aI829
aI1
aa(lp6105
I1
aa(lp6106
I63
aI9
aI263
aI9
aI263
aa(lp6107
I1
aI2
aI5
aI31
aI595
aI102
aa(lp6108
I7
aI595
aI1
aI49
aI22
aI145
aI157
aI330
aa(lp6109
I1
aI857
aI146
aI68
aa(lp6110
I4
aI18
aI63
aI19
aI319
aI30
aI129
aI40
aa(lp6111
I129
aa(lp6112
I1
aI2
aI1
aI2
aI68
aI1
aa(lp6113
I72
aI213
aI5
aI3
aa(lp6114
I4
aI349
aI12
aI413
aa(lp6115
I17
aa(lp6116
I1
aI119
aI778
aa(lp6117
I1
aa(lp6118
I228
aa(lp6119
I1
aI489
aa(lp6120
I208
aI4
aI12
aI32
aI367
aI1
aa(lp6121
I89
aI1
aa(lp6122
I4
aI349
aI413
aa(lp6123
I134
aI30
aI1
aI40
aa(lp6124
I1
aI1
aI11
aa(lp6125
I28
aI21
aI546
aa(lp6126
I1
aI99
aI9
aa(lp6127
I1
aI3
aa(lp6128
I105
aI1
aI7
aI116
aI91
aa(lp6129
I1
aI801
aI113
aa(lp6130
I801
aI1
aI630
aI159
aa(lp6131
I1
aI159
aa(lp6132
I70
aI4
aI268
aI40
aa(lp6133
I5
aI101
aI1
aa(lp6134
I19
aI14
aI1
aI555
aI1
aa(lp6135
I172
aI1
aI887
aI7
aI1
aa(lp6136
I1
aI156
aI1
aI40
aa(lp6137
I27
aI7
aI1
aI1
aI12
aa(lp6138
I1
aI1
aI4
aI7
aI1
aI859
aa(lp6139
I216
aI1
aI373
aa(lp6140
I42
aa(lp6141
I187
aI6
aI146
aI68
aI304
aa(lp6142
I1
aI156
aa(lp6143
I728
aI1
aI156
aI1
aa(lp6144
I769
aI1
aa(lp6145
I5
aI1
aI351
aI1
aI1
aI1
aa(lp6146
I4
aI7
aI35
aI1
aa(lp6147
I43
aI11
aI152
aI323
aa(lp6148
I162
aI5
aI7
aI1
aI2
aa(lp6149
I27
aI16
aI126
aI5
aI615
aI3
aa(lp6150
I82
aI1
aI9
aI2
aa(lp6151
I1
aI3
aI21
aa(lp6152
I1
aI3
aI280
aI1
aI162
aI2
aI1
aa(lp6153
I269
aa(lp6154
I1
aI39
aI290
aI454
aI1
aa(lp6155
I101
aI83
aa(lp6156
I19
aI12
aI381
aI2
aa(lp6157
I44
aI16
aI81
aI603
aI96
aI34
aI24
aI378
aa(lp6158
I1
aI723
aI1
aI1
aa(lp6159
I312
aI81
aI603
aI774
aI6
aa(lp6160
I50
aI501
aa(lp6161
I312
aa(lp6162
I94
aa(lp6163
I7
aI7
aI7
aI4
aI662
aI334
aa(lp6164
I279
aI4
aI582
aI145
aI1
aa(lp6165
I1
aI1
aI3
aI145
aI1
aa(lp6166
I207
aI2
aI502
aI1
aa(lp6167
I174
aI197
aI5
aI2
aI40
aa(lp6168
I5
aI72
aI1
aI3
aa(lp6169
I1
aI20
aI303
aa(lp6170
I57
aI1
aI15
aI1
aI94
aa(lp6171
I98
aI91
aa(lp6172
I552
aI26
aI1
aa(lp6173
I9
aI26
aI1
aa(lp6174
I1
aI407
aI1
aI1
aI1
aa(lp6175
I1
aI9
aI86
aa(lp6176
I261
aI574
aI1
aI1
aa(lp6177
a(lp6178
I1
aI2
aI129
aa(lp6179
I201
aI129
aa(lp6180
a(lp6181
I758
aa(lp6182
I56
aI1
aI1
aI12
aI125
aa(lp6183
I1
aa(lp6184
I1
aI47
aI1
aI595
aI859
aI1
aI1
aI2
aI14
aI33
aa(lp6185
I390
aI1
aI59
aI754
aI1
aI47
aI1
aa(lp6186
I137
aI217
aI755
aI1
aI1
aI612
aa(lp6187
I5
aI119
aI215
aI21
aI1
aI75
aI1
aa(lp6188
I208
aI1
aa(lp6189
I29
aI1
aI20
aI1
aa(lp6190
I170
aa(lp6191
I170
aa(lp6192
I48
aI284
aI1
aI857
aI2
aI1
aI1
aI1
aa(lp6193
I142
aI240
aI14
aI1
aa(lp6194
I222
aI1
aI1
aI29
aa(lp6195
I702
aa(lp6196
I381
aI79
aI189
aa(lp6197
I50
aI1
aI726
aI14
aI1
aa(lp6198
I1
aI2
aa(lp6199
I1
aa(lp6200
I62
aa(lp6201
I5
aI217
aI82
aI12
aI75
aI109
aa(lp6202
I21
aI1
aI5
aI1
aa(lp6203
I12
aI33
aI1
aa(lp6204
I1
aI492
aI2
aI29
aI10
aa(lp6205
I12
aI56
aa(lp6206
a(lp6207
I1
aI11
aI217
aa(lp6208
I1
aI30
aI123
aI8
aa(lp6209
I1
aI123
aI1
aI404
aa(lp6210
I29
aI79
aI590
aI1
aI14
aI638
aI541
aI6
aa(lp6211
I274
aI759
aa(lp6212
I187
aI32
aI126
aI77
aI1
aI231
aI441
aI6
aa(lp6213
a(lp6214
I71
aI791
aI32
aI65
aI32
aI372
aI32
aI532
aa(lp6215
I27
aI7
aI1
aa(lp6216
I9
aI8
aa(lp6217
I130
aI30
aI1
aI5
aI1
aa(lp6218
I1
aI5
aa(lp6219
I5
aI313
aI116
aI1
aI4
aa(lp6220
I1
aI477
aI95
aI4
aI18
aa(lp6221
I199
aa(lp6222
I1
aI1
aI104
aI1
aI4
aa(lp6223
I1
aI1
aI203
aI1
aa(lp6224
I4
aI1
aa(lp6225
I401
aI1
aI339
aI49
aa(lp6226
I7
aI6
aa(lp6227
I4
aI12
aI138
aI187
aI119
aI30
aI27
aI197
aa(lp6228
I571
aI154
aI105
aI1
aI210
aI5
aa(lp6229
I59
aa(lp6230
I62
aI1
aI89
aI1
aa(lp6231
I4
aI279
aI16
aI1
aI195
aa(lp6232
I144
aI1
aa(lp6233
I1
aI389
aI3
aa(lp6234
I4
aI41
aI78
aa(lp6235
I881
aI10
aa(lp6236
I33
aI1
aI95
aa(lp6237
I1
aI41
aI386
aI1
aI2
aa(lp6238
I19
aI14
aI299
aI1
aa(lp6239
I272
aI204
aI99
aI140
aI10
aa(lp6240
I4
aI267
aI11
aI204
aI18
aa(lp6241
I415
aI1
aa(lp6242
I15
aI104
aI1
aI18
aa(lp6243
I438
aI85
aI382
aI47
aI1
aI1
aI2
aI1
aI6
aa(lp6244
I35
aI2
aI56
aa(lp6245
I291
aI338
aa(lp6246
I1
aI1
aa(lp6247
I1
aI59
aa(lp6248
I38
aI1
aI134
aI16
aI15
aa(lp6249
I483
aa(lp6250
I4
aI7
aI35
aI4
aI1
aI5
aI2
aI643
aa(lp6251
I9
aI8
aa(lp6252
I7
aI49
aa(lp6253
I4
aI31
aa(lp6254
I792
aa(lp6255
I7
aI6
aa(lp6256
I19
aI319
aI1
aI8
aa(lp6257
I1
aI141
aa(lp6258
I460
aI792
aI2
aI46
aa(lp6259
I830
aI29
aI602
aI1
aI576
aI1
aa(lp6260
I9
aI3
aI542
aI150
aI239
aI8
aa(lp6261
I11
aI576
aI11
aI1
aI76
aa(lp6262
I291
aI222
aI18
aa(lp6263
I291
aI338
aa(lp6264
I109
aa(lp6265
I1
aI22
aI60
aI122
aI64
aI641
aI20
aa(lp6266
I97
aI324
aI54
aI5
aI856
aa(lp6267
I1
aa(lp6268
I5
aI112
aa(lp6269
I56
aI5
aI13
aa(lp6270
I449
aI450
aa(lp6271
I1
aI1
aI73
aI522
aI3
aI321
aI6
aa(lp6272
I1
aI1
aI1
aI424
aI28
aI1
aa(lp6273
I59
aa(lp6274
I449
aI450
aa(lp6275
I357
aI468
aI4
aI2
aI1
aI1
aa(lp6276
I4
aI1
aI807
aI3
aI1
aa(lp6277
I1
aI1
aI12
aI73
aI21
aI1
aI3
aa(lp6278
I328
aI2
aI4
aa(lp6279
I121
aI56
aI146
aI68
aI23
aI1
aI6
aa(lp6280
I1
aI4
aI34
aI367
aI2
aa(lp6281
I57
aI18
aI22
aa(lp6282
I1
aI1
aI28
aI25
aI11
aa(lp6283
I158
aI32
aI1
aI13
aa(lp6284
I23
aI91
aa(lp6285
I98
aI91
aI6
aI1
aI2
aa(lp6286
I16
aI104
aI48
aI8
aa(lp6287
I570
aI24
aI522
aa(lp6288
I248
aI838
aI35
aI276
aa(lp6289
I1
aI115
aI2
aI1
aI41
aI34
aI15
aI452
aI1
aI2
aa(lp6290
I1
aI54
aI4
aI4
aI257
aI1
aa(lp6291
I31
aI1
aa(lp6292
I11
aI1
aa(lp6293
I197
aI1
aa(lp6294
I1
aI1
aI199
aa(lp6295
I1
aI528
aI175
aI91
aa(lp6296
I72
aI1
aI20
aI376
aI446
aa(lp6297
I54
aI4
aI299
aI839
aI6
aI455
aa(lp6298
I1
aa(lp6299
I869
aI1
aI593
aa(lp6300
I19
aI158
aI11
aI236
aI74
aI26
aI540
aI2
aI13
aa(lp6301
I80
aI31
aI90
aI74
aI157
aI3
aI10
aa(lp6302
I379
aI2
aI1
aI7
aI21
aI575
aI2
aa(lp6303
I505
aI69
aI3
aI18
aI1
aI3
aI164
aa(lp6304
I654
aI1
aa(lp6305
I73
aI806
aI3
aI1
aI73
aI879
aI3
aa(lp6306
I455
aI500
aI1
aI3
aI1
aI104
aI1
aa(lp6307
I144
aI104
aI78
aI2
aa(lp6308
I9
aI8
aI1
aa(lp6309
I17
aa(lp6310
I202
aI1
aI1
aI2
aI28
aI290
aI1
aI13
aa(lp6311
I45
aa(lp6312
I17
aI406
aI3
aI1
aa(lp6313
I27
aI148
aI82
aI1
aI6
aa(lp6314
I50
aI1
aI503
aI8
aa(lp6315
I9
aI8
aI482
aI80
aI85
aI1
aI8
aa(lp6316
I201
aI129
aa(lp6317
I1
aI175
aI91
aa(lp6318
I43
aI693
aI375
aI3
aa(lp6319
I23
aI533
aa(lp6320
I1
aI462
aI4
aI1
aI3
aa(lp6321
I1
aI573
aI87
aa(lp6322
I1
aI8
aI794
aI38
aa(lp6323
I164
aI1
aI8
aI17
aa(lp6324
I4
aI1
aI95
aI1
aI1
aa(lp6325
I248
aI9
aI8
aI1
aI1
aa(lp6326
I50
aI56
aI41
aI32
aI1
aI2
aa(lp6327
I1
aa(lp6328
I39
aI39
aI40
aa(lp6329
I126
aI1
aI2
aI25
aI1
aa(lp6330
I5
aI78
aI1
aI18
aa(lp6331
I101
aI2
aa(lp6332
I46
aI11
aI1
aI250
aI18
aa(lp6333
I202
aI426
aI1
aI6
aa(lp6334
I19
aI7
aI202
aI804
aI2
aa(lp6335
I201
aI73
aI542
aI75
aI276
aa(lp6336
I41
aI1
aI427
aI2
aI9
aa(lp6337
I27
aI39
aI1
aI427
aa(lp6338
I248
aI270
aI6
aa(lp6339
I1
aI6
aa(lp6340
I570
aI24
aI276
aI2
aI22
aa(lp6341
I276
aI2
aI1
aa(lp6342
I185
aI105
aI191
aI25
aI43
aI353
aI1
aI8
aa(lp6343
I46
aI1
aI1
aI35
aI77
aI840
aa(lp6344
I1
aI452
aI1
aI1
aI1
aa(lp6345
I1
aI1
aI2
aI520
aI31
aI637
aI839
aI2
aa(lp6346
I4
aI349
aI101
aI1
aa(lp6347
I1
aI51
aa(lp6348
I32
aI794
aI38
aI22
aa(lp6349
I19
aI36
aI1
aI14
aI637
aI1
aI3
aa(lp6350
I50
aI148
aI82
aI193
aI3
aa(lp6351
I5
aI12
aI1
aa(lp6352
I147
aI342
aI12
aI33
aI1
aa(lp6353
I1
aI3
aa(lp6354
I728
aI1
aI6
aa(lp6355
I531
aa(lp6356
I1
aa(lp6357
I14
aI421
aI138
aI187
aI48
aI589
aI1
aa(lp6358
I197
aI157
aI29
aI3
aa(lp6359
I39
aI40
aa(lp6360
I1
aa(lp6361
I191
aI2
aI1
aI70
aI1
aI198
aI8
aa(lp6362
I19
aI836
aI100
aI46
aI1
aI88
aI8
aa(lp6363
I11
aI1
aa(lp6364
I164
aI575
aI178
aI608
aI1
aa(lp6365
I1
aI8
aa(lp6366
I328
aI159
aI29
aI804
aI15
aI753
aI159
aI1
aI21
aI153
aI69
aI40
aa(lp6367
I164
aa(lp6368
I107
aI1
aI1
aa(lp6369
I17
aI35
aI82
aI9
aa(lp6370
I57
aI14
aI65
aI1
aI3
aI76
aa(lp6371
I1
aI92
aI120
aI2
aI1
aI85
aI1
aI2
aI151
aI40
aa(lp6372
I300
aa(lp6373
I11
aI1
aI1
aa(lp6374
I1
aI1
aI18
aa(lp6375
I126
aI80
aI257
aI46
aI750
aI8
aa(lp6376
I1
aI18
aa(lp6377
I12
aI223
aI1
aI37
aI406
aI322
aa(lp6378
I27
aI352
aI98
aI98
aI242
aI6
aI164
aa(lp6379
I735
aI6
aa(lp6380
I7
aI21
aI78
aI1
aI69
aa(lp6381
I19
aI1
aI56
aI46
aI23
aI154
aa(lp6382
I1
aI24
aI348
aI6
aa(lp6383
I21
aI1
aa(lp6384
I49
aI5
aI72
aI613
aI3
aI55
aa(lp6385
I302
aI51
aI592
aI1
aI3
aI249
aI65
aI1
aI25
aa(lp6386
I50
aI48
aI137
aI217
aI14
aI137
aI217
aI261
aI629
aI222
aa(lp6387
I1
aI8
aI41
aI17
aa(lp6388
I17
aa(lp6389
I23
aI91
aa(lp6390
I74
aI1
aI15
aI85
aI2
aI11
aI255
aI3
aI11
aI1
aa(lp6391
I302
aI2
aa(lp6392
I1
aI3
aa(lp6393
I379
aI542
aa(lp6394
I7
aI5
aI1
aI3
aa(lp6395
I552
aI4
aI23
aI4
aI27
aI72
aI1
aI72
aI167
aI2
aa(lp6396
I1
aI116
aI167
aI116
aa(lp6397
I485
aI49
aa(lp6398
I195
aI54
aI5
aI103
aI3
aa(lp6399
I21
aI13
aI1
aI20
aI1
aI1
aI1
aI1
aI108
aa(lp6400
I4
aI7
aI1
aI1
aI745
aI193
aI396
aa(lp6401
I1
aI1
aI117
aI3
aI244
aI66
aa(lp6402
I50
aI439
aI77
aI1
aI8
aI17
aatp6403
.