(dp1
V\u8981
I32
sV\u9000
I694
sV\u770b\u6765
p2
I393
sV\u51fa\u6765
p3
I152
sV\u8fd8\u8981
p4
I877
sV\u6da8\u4ef7
p5
I843
sV\u8fd1
I588
sV\u4f1a
I34
sV\u4e24
I719
sV\u6240\u4ee5
p6
I187
sV\u901a\u77e5
p7
I695
sV\u88ab
I111
sV\u7535\u5f71
p8
I670
sV\u4e00\u822c
p9
I514
sV\u6709\u7684
p10
I828
sV\u4e3a\u561b
p11
I721
sV\u73b0\u5728
p12
I57
sV\u5e0c\u671b
p13
I482
sV\u653e
I652
sV\u89c1
I870
sV\u65b0\u5e74\u5feb\u4e50
p14
I385
sV\u5de8\u87f9
p15
I256
sV\u5fc5
I804
sV\u6cb3\u5317
p16
I496
sV\u51d1
I740
sV\u5662
I373
sV\u76f8\u4eb2
p17
I498
sV\u795d\u798f
p18
I501
sV\u90e8
I880
sV\u8bdd
I237
sV\u8d5e
I586
sV\u5750\u7b49
p19
I374
sV\u5410
I621
sV\u65e9
I109
sV\u5fae\u4fe1
p20
I484
sV\u597d\u542c
p21
I632
sV\u5b9e\u5728
p22
I791
sV\u7070
I667
sV\u610f\u601d
p23
I91
sV\u5173\u6ce8
p24
I225
sV\u5478
I371
sV\u56de\u6765
p25
I183
sV\u7eff
I680
sV\u5403
I65
sV\u7684
I2
sV\u665a\u4e0a
p26
I279
sV\u4e0d\u6562
p27
I518
sV\u5509
I164
sV\u5199
I160
sV\u54c8\u54c8
p28
I17
sV\u9519
I157
sV\u54c7\u54c8\u54c8
p29
I761
sV\u9e1f
I171
sV\u59d0\u59d0
p30
I785
sV\u57fa\u53cb
p31
I773
sV\u770b\u8fc7
p32
I499
sV\u4e5f\u60f3
p33
I405
sV4
I595
sV\u662f
I7
sV\u563b\u563b
p34
I531
sV\u5e2e\u9876
p35
I377
sV\u7406\u89e3
p36
I567
sV\u84b8
I578
sV\u611f\u8c22
p37
I646
sV\u963f
I94
sV\u5443
I248
sV\u597d\u50cf\u662f
p38
I537
sV\u7ec4
I679
sV\u753b\u753b
p39
I671
sV\u54c8
I83
sV\u65e0\u6cd5
p40
I654
sV\u4e0d\u7528
p41
I269
sV\u4f60\u4eec
p42
I93
sV\u7559
I672
sV\u591a\u5c11
p43
I333
sV\u4e5f
I12
sV\u600e\u4e48
p44
I52
sV\u6765
I30
sV\u5f02\u5730\u604b
p45
I798
sV\u5730\u5740
p46
I251
sV\u591a\u8c22
p47
I422
sV\u95ee
I197
sV\u8fc7\u6765
p48
I443
sV\u55ef\u54fc
p49
I228
sV\u5177\u4f53
p50
I461
sV\u66f4
I280
sV\u8fd8\u597d
p51
I288
sV\u6b66\u6c49
p52
I345
sV\u4ffa
I732
sV\u4e0d\u9519
p53
I127
sV\u5927\u5bb6
p54
I134
sV\u7b80\u5386
p55
I435
sV\u5f04
I336
sV\u7b97\u4e86
p56
I678
sV\u6c89
I564
sV\u4e0a
I92
sV\u6700\u540e
p57
I431
sV\u540e
I468
sV\u604b\u7231
p58
I427
sV\u7b97
I352
sV\u5566\u5566\u5566
p59
I766
sV\u4ef7\u683c
p60
I524
sV\u529d
I745
sV\u731c
I349
sV\u521a\u597d
p61
I743
sV\u641e
I382
sV\u5b8c\u4e86
p62
I334
sV\u641e\u57fa
p63
I383
sV\u4f4e\u8c03
p64
I409
sV\u624b\u673a
p65
I648
sV\u5403\u996d
p66
I466
sV\u6ce1
I842
sV\u54a9
I102
sV\u7528
I147
sV\u4e2a
I26
sV\u6211\u559c\u6b22
p67
I341
sV\u7167\u7247
p68
I846
sV\u540c\u610f
p69
I415
sV\u661f\u5ea7
p70
I189
sV\u79bb
I193
sV\u4e3a
I172
sV\u62bd
I556
sV\u679c\u7136
p71
I561
sV\u5c0f\u6e05\u65b0
p72
I481
sV\u8fd9\u4e0d
p73
I507
sV\u771f\u8bda
p74
I849
sV\u4f60\u6765
p75
I525
sV\u54ce\u54df
p76
I762
sV\u6b4c
I391
sV\u59b9
I784
sV\u6628\u5929
p77
I430
sV\u53d7
I616
sV\u4ec0\u4e48\u65f6\u5019
p78
I296
sV\u5c31\u4e0d
p79
I254
sVme
p80
I449
sV\u5e16\u5b50
p81
I543
sV\u8fd9\u4e2a
p82
I36
sV\u91cd\u53e3\u5473
p83
I881
sV\u6211\u8981
p84
I278
sV\u4e3b\u8981
p85
I455
sV\u8bf7
I440
sV\u5076
I526
sV\u4e3a\u4f55
p86
I720
sV\u54c8\u54c8\u54c8
p87
I55
sV\u5176\u5b9e
p88
I114
sV\u8001
I353
sV\u660e\u5929
p89
I387
sV\u81ea
I577
sV\u5973\u751f
p90
I307
sV\u54e5\u54e5
p91
I763
sV\u867e\u7c73
p92
I868
sV\u5b8c
I253
sV\u50b2\u5a07
p93
I609
sV\u7231\u60c5
p94
I566
sV\u82b1\u513f
p95
I687
sV\u61d2
I554
sV\u4e00\u5b9a
p96
I452
sV\u8c8c\u4f3c
p97
I402
sV\u60f3\u8981
p98
I553
sV\u771f
I75
sV\u6e29\u5ea6
p99
I666
sV\u8bdd\u8bf4
p100
I401
sV\u600e\u4e48\u4e86
p101
I338
sV\u7fa4
I682
sV\u8ba4\u771f
p102
I583
sV\u5f2f
I548
sV1
I59
sV\u8c46\u74e3
p103
I238
sV\u571f
I625
sV\u4eba
I29
sV\u563f\u563f
p104
I63
sV\u597d\u4e45
p105
I475
sV\u6765\u5427
p106
I315
sV\u4f60\u4fe9
p107
I729
sV\u524d
I246
sV\u4f4f
I151
sV\u54ce
I97
sV\u5927\u5b66
p108
I535
sV\u62a2
I813
sV\u6655
I825
sV\u5b57
I424
sV\u80d6
I576
sV\u5e74\u9f84
p109
I544
sV\u676d\u5dde
p110
I390
sV\u4e0a\u5b66
p111
I712
sV\u795e\u5947
p112
I853
sV\u55ef\u55ef
p113
I201
sV\u51e0
I298
sV\u8fc7\u5e74
p114
I587
sV\u56de\u56fd
p115
I768
sV\u53cb\u90bb
p116
I529
sV\u65e0\u804a
p117
I167
sV\u8c46\u6cb9
p118
I103
sV\u5728\u8fd9\u91cc
p119
I627
sV\u773c\u775b
p120
I850
sVq
I362
sV\u9171\u6cb9
p121
I509
sV\u60b2\u5267
p122
I806
sV\u5750\u6807
p123
I252
sV\u8981\u53bb
p124
I582
sV\u6bd4\u8f83
p125
I317
sV\u4e00\u4f1a
p126
I709
sV\u5f00
I546
sV\u4ec0\u4e48
p127
I23
sV\u4e00\u6761
p128
I513
sV\u518d
I142
sV\u800c
I436
sV\u6210
I555
sV\u5c11
I795
sV\u9760\u8c31
p129
I204
sV\u7b2c\u4e00\u6b21
p130
I854
sV\u644a\u624b
p131
I815
sV\u5408\u9002
p132
I413
sV\u7ee7\u7eed
p133
I394
sV\u8054\u7cfb
p134
I437
sV\u5973\u4eba
p135
I423
sV\u4e0d\u8fc7
p136
I224
sV\u9047\u5230
p137
I508
sV\u8ba4\u8bc6
p138
I112
sV\u4e1c\u897f
p139
I520
sV\u5927\u53d4
p140
I472
sV\u662f\u4ec0\u4e48
p141
I175
sV\u59b9\u7eb8
p142
I538
sV\u54af
I181
sV\u5230
I47
sV\u4f30\u8ba1
p143
I244
sVls
p144
I219
sV\u66fc\u57ce
p145
I656
sV\u4e0d\u8fdc
p146
I717
sV\u804a\u804a
p147
I355
sVlx
p148
I292
sV\u6bd5\u4e1a
p149
I661
sV\u4e48
I10
sV\u554a
I6
sV\u884c
I140
sV\u4f4e
I727
sV\u53d1
I301
sV\u5934\u50cf
p150
I209
sV\u6362
I491
sV\u5356
I748
sV\u5fd9
I231
sV\u4e0d\u8981
p151
I131
sV\u62db
I490
sV\u6cd5\u5b66
p152
I841
sV\u6d3b
I664
sV\u54df
I133
sV\u53cd\u6b63
p153
I368
sV\u6280\u5de7
p154
I811
sV\u8863\u670d
p155
I579
sV\u5b66
I184
sV\u4fe9
I608
sV\u53f7
I754
sV\u771f\u76f8
p156
I214
sVl
I320
sV\u5ba2\u6c14
p157
I479
sV\u4e0a\u73ed
p158
I221
sV\u7a81\u7136
p159
I571
sV\u539f\u6765
p160
I162
sV\u679c\u65ad
p161
I316
sV\u6211\u6ca1\u6709
p162
I809
sV\u6709
I15
sV\u5b57\u6bcd
p163
I786
sV\u6709\u4eba
p164
I657
sV\u5c0f
I107
sV\u7f8e
I862
sV\u7b11
I318
sV\u9001
I878
sV\u5192
I739
sV\u56e0\u4e3a
p165
I421
sV\u5c0f\u8bf4
p166
I640
sV\u60f3\u5230
p167
I807
sV\u6b21
I660
sV\u52a0
I299
sV\u6ca1\u4ec0\u4e48
p168
I663
sV\u6ca1\u4eba
p169
I836
sV\u5728\u4e00\u8d77
p170
I771
sV\u522b
I161
sV\u7edd\u5bf9
p171
I502
sV\u4eba\u751f
p172
I407
sV7
I512
sV\u7eb8
I859
sV\u4e00\u70b9
p173
I363
sV\u6ca1\u95ee\u9898
p174
I840
sV\u6211\u7231
p175
I487
sV\u5f00\u5fc3
p176
I547
sV\u4e43
I294
sV\u61c2
I259
sV\u8bfe\u540e
p177
I506
sV\u5047
I737
sV\u559d\u9152
p178
I530
sV\u624d
I119
sV\u624b
I342
sV\u53ea\u6709
p179
I369
sV\u95ee\u9898
p180
I198
sV\u5b8c\u6574
p181
I540
sV\u6700\u8fd1
p182
I261
sV\u574f
I471
sV\u4e0d\u77e5\u9053
p183
I138
sV\u65f6\u5019
p184
I820
sV\u76d8
I675
sV\u529f\u80fd
p185
I746
sV\u5565
I98
sV\u53e6
I618
sV\u5e1d\u90fd
p186
I483
sV\u996d
I700
sV\u53ef\u80fd
p187
I329
sV\u795e\u9a6c
p188
I116
sV\u4eca\u5929
p189
I106
sVw
I708
sV\u8bf6
I195
sV\u597d\u50cf
p190
I210
sV\u597d
I9
sV\u6b22\u8fce
p191
I125
sV\u4e0d\u4f1a
p192
I207
sV\u54ea\u513f
p193
I303
sV\u6211\u8bf4
p194
I379
sV\u5206
I462
sV\u8138\u7ea2
p195
I864
sV\u6708
I232
sV\u7b80\u5355
p196
I855
sV\u597d\u65e0\u804a
p197
I782
sV\u4e0e
I519
sV\u5012
I733
sV\u5514
I332
sV\u5f88\u591a
p198
I800
sV\u6700\u591a
p199
I827
sV\u597d\u591a
p200
I633
sV\u989d
I45
sV\u8bb0\u5f97
p201
I194
sV\u6bcf\u5929
p202
I835
sV\u5730
I534
sV\u5728
I20
sV\u63e1\u624b
p203
I343
sV\u4e00\u5929
p204
I451
sV\u7ea0\u7ed3
p205
I573
sV\u5e2e
I257
sV\u82b1
I686
sV\u5bf9\u4e86
p206
I542
sV\u5b9e\u4e60\u751f
p207
I790
sV2
I205
sV\u8d34
I176
sV\u51b7
I411
sV\u6ca1\u7528
p208
I839
sV\u60b2\u50ac
p209
I276
sV\u53bb
I25
sV\u6d4e\u5357
p210
I281
sV\u5fc3
I802
sV\u4e94\u6708\u5929
p211
I603
sV\u7ffb\u9875
p212
I683
sV\u6211\u5bb6
p213
I486
sV\u597d\u597d
p214
I308
sV\u6211\u53bb
p215
I277
sV\u63e1\u722a
p216
I129
sV\u98d8\u8fc7
p217
I511
sV\u5982\u4f55
p218
I375
sV\u4e0d\u7406
p219
I601
sVtoo
p220
I450
sV\u7ed9
I54
sV\u52a0\u6cb9
p221
I62
sV\u8ddf
I100
sV\u6709\u70b9
p222
I233
sV\u4e0d\u4e86
p223
I241
sV\u54e5
I418
sV\u544a\u8bc9\u4f60
p224
I757
sV\u53eb
I124
sV\u6765\u4e86
p225
I168
sV\u55ef
I50
sV\u597d\u5730\u65b9
p226
I781
sVi
I705
sV\u8ba8\u538c
p227
I584
sV\u55e8
I767
sV\u90fd
I16
sV\u697c
I234
sV\u54e6
I38
sV\u4e09
I710
sV\u5f88
I24
sV\u4e16\u754c
p228
I718
sV\u6362\u4e2a
p229
I557
sV\u6211
I4
sV\u5594
I623
sV\u53ef\u60dc
p230
I619
sV\u5982\u679c
p231
I634
sV\u88c5
I689
sV\u5df2\u7ecf
p232
I90
sV\u751f
I350
sV\u91d1\u5c5e
p233
I882
sV\u65a4
I818
sV\u5927
I86
sV\u65b0\u4eba
p234
I653
sV\u5b69\u5b50
p235
I309
sV\u63a8\u8350
p236
I558
sV\u5012\u662f
p237
I734
sV\u4f24\u5fc3
p238
I726
sV\u4eae
I604
sV\u7231
I348
sV\u6709\u4e2a
p239
I432
sV\u4f60\u4ee5\u4e3a
p240
I728
sV\u4e60\u9898
p241
I456
sV\u53cb
I528
sV\u4e0d\u5ba2\u6c14
p242
I715
sV\u96be
I591
sV\u5efa\u8bae
p243
I643
sV\u97f3\u4e50
p244
I884
sV\u8d76\u7d27
p245
I319
sV\u8def\u8fc7
p246
I442
sV\u4e0d\u662f
p247
I31
sV\u91cc
I446
sV\u4ece
I243
sV\u5f53
I275
sV\u7ea6
I858
sV\u54e6\u54e6
p248
I764
sV\u7ecf\u5178
p249
I860
sV\u5171\u52c9
p250
I245
sV\u8fd8
I28
sV\u517b
I611
sV\u56de
I229
sV\u7ed3\u5a5a
p251
I575
sV\u771f\u597d
p252
I351
sV\u9752\u6625
p253
I698
sV\u54ea
I84
sVm
I240
sV\u86ee
I285
sV\u54ea\u91cc
p254
I227
sV\u670b\u53cb
p255
I494
sV\u90c1\u95f7
p256
I879
sV\u6b7b
I190
sV\u957f
I266
sV\u56fe
I533
sV\u4e3a\u4ec0\u4e48
p257
I158
sV\u5b85
I310
sV\u4e00\u4e0b
p258
I113
sV\u548b
I302
sV\u6280\u672f
p259
I812
sV\u6536\u5230
p260
I344
sV\u5468\u672b
p261
I417
sV\u8eab\u6750
p262
I693
sV\u771f\u7231
p263
I848
sV\u54ea\u4e2a
p264
I331
sV\u72ee\u5b50
p265
I146
sV\u968f\u65f6
p266
I883
sV\u53cc\u9c7c
p267
I271
sV\u771f\u7684
p268
I87
sV\u545c\u545c\u545c
p269
I758
sV\u53ef\u662f
p270
I179
sV\u771f\u662f
p271
I500
sV\u90a3
I19
sV\u4e0d\u61c2
p272
I323
sV\u4e00\u4e2a
p273
I53
sV(
I60
sV\u5730\u65b9
p274
I470
sV\u8fc7\u53bb
p275
I265
sV\u540d\u5b57
p276
I620
sV\u597d\u561b
p277
I780
sV\u8bb2
I691
sV\u5176\u4ed6
p278
I738
sV\u597d\u4e0d
p279
I777
sV8
I596
sV\u633a
I380
sV\u672c\u4eba
p280
I830
sV\u547c\u547c
p281
I622
sV\u77e5\u9053
p282
I215
sV\u5440
I49
sV\u89c9
I871
sV\u90a3\u4f60
p283
I121
sV\u8981\u4e0d
p284
I399
sV\u840c
I356
sV\u8dd1
I692
sV\u5450
I226
sV\u4ee5\u540e
p285
I606
sV\u8bd5
I505
sV\u786e\u5b9e
p286
I570
sV\u5f20\u5b66\u53cb
p287
I644
sV\u7537\u4eba
p288
I191
sVqq
p289
I293
sV\u4e13\u4e1a
p290
I270
sV\u8be5
I286
sV\u56e7
I165
sV\u5566
I51
sV\u8868
I580
sV\u5927\u56db
p291
I776
sV\u8981\u662f
p292
I438
sV\u95fa\u871c
p293
I358
sV\u60f3
I48
sV\u6728\u6709
p294
I135
sV\u5fc5\u987b
p295
I202
sV\u7cfb
I857
sV\u76f4\u63a5
p296
I236
sV\u8ffd
I445
sV\u7956\u56fd
p297
I677
sV\u62ff
I313
sV\u6700\u597d
p298
I389
sV\u571f\u661f
p299
I626
sV\u8003
I284
sV\u9700\u8981
p300
I290
sV\u5305
I464
sV\u53ef\u601c
p301
I328
sV\u54ed
I250
sV\u751f\u6c14
p302
I434
sV\u4e8c
I724
sV\u770b\u7535\u5f71
p303
I676
sV\u597d\u4eba
p304
I230
sV\u5b66\u6821
p305
I211
sV\u7ecf\u5e38
p306
I574
sV\u4e0d\u597d
p307
I222
sV\u606d\u559c
p308
I552
sV\u541b
I756
sV\u5b9a
I789
sV\u8003\u8651
p309
I395
sV\u8111\u5b50
p310
I684
sV\u5929
I306
sV\u60a8
I118
sV\u6253\u7b97
p311
I649
sV\u56de\u5bb6
p312
I532
sV\u706b\u8f66\u7ad9
p313
I844
sV\u5531
I420
sV\u5475\u5475\u5475
p314
I759
sV3
I122
sV\u8001\u5e08
p315
I354
sV\u6ca1\u9519
p316
I392
sV\u53ea\u8981
p317
I752
sV\u767d\u7f8a
p318
I673
sV\u8d77\u6765
p319
I441
sV\u5e72\u5417
p320
I797
sV\u89c1\u8fc7
p321
I690
sV25
p322
I594
sV\u5f00\u59cb
p323
I425
sV\u5bab
I480
sV\u5fae\u535a
p324
I337
sV\u6653\u5f97
p325
I824
sV\u800c\u5df2
p326
I396
sV\u5657
I272
sV\u51fa\u53bb
p327
I612
sV\u5fc5\u987b\u7684
p328
I426
sV\u51fa\u73b0
p329
I613
sV\u4eca\u5e74
p330
I523
sV\u53e5
I751
sV\u751f\u547d
p331
I669
sV\u5e78\u798f
p332
I378
sV\u6807\u8bb0
p333
I831
sV\u80fd
I85
sV\u53ef\u4ee5
p334
I33
sV\u53ea
I163
sV\u591a\u5c11\u94b1
p335
I775
sV\u8ba9
I126
sV\u5e7f\u544a
p336
I545
sV\u4e00\u76f4
p337
I364
sV\u5979
I80
sV\u4e0d\u591f
p338
I322
sV\u633d\u5c0a
p339
I814
sV\u5c81
I642
sV\u90a3\u4e2a
p340
I105
sV\u5317\u4eac
p341
I300
sV\u665a\u5b89
p342
I826
sV\u6545\u4e8b
p343
I492
sV\u4e09\u4e2a
p344
I515
sV\u7f9e\u5c04
p345
I863
sV\u7761\u4e0d\u7740
p346
I851
sV\u5929\u6c14
p347
I629
sV\u4e0d\u559c\u6b22
p348
I321
sV\u5f97
I82
sV\u5416
I755
sV\u4e0d\u80fd
p349
I223
sV\u5bc2\u5bde
p350
I541
sV\u521a
I178
sV\u5c31\u662f
p351
I39
sV\u751f\u65e5\u5feb\u4e50
p352
I235
sV\u6ca1
I21
sV\u5206\u624b
p353
I614
sV\u597d\u4f10
p354
I536
sV\u59d1\u5a18
p355
I539
sV\u56e0\u4e3a\u4f60
p356
I769
sV\u8c22\u8c22\u4f60
p357
I170
sV\u54b1
I249
sV\u5de5\u4f5c
p358
I128
sV\u70b9
I99
sV\u8138
I504
sV\u4f60\u731c
p359
I731
sV\u4e00\u6837
p360
I268
sV\u627e\u5de5\u4f5c
p361
I810
sV\u5c04\u624b
p362
I639
sV\u8fc7
I69
sV\u8c46
I150
sV\u7814\u7a76
p363
I852
sV\u5148
I410
sV\u7f18\u5206
p364
I861
sV\u770b\u5230
p365
I213
sV\u6ca1\u529e\u6cd5
p366
I837
sV\u611f\u89c9
p367
I154
sV\u5e94\u8be5
p368
I96
sV\u771f\u5fc3
p369
I192
sV\u5fd8\u8bb0
p370
I805
sV\u5751\u7239
p371
I772
sV\u62b1\u62b1
p372
I489
sV\u90a3\u4e48
p373
I155
sV\u5168
I610
sV\u53ef
I143
sV\u8d70
I137
sV\u5e72
I335
sV\u6ca1\u6cd5
p374
I838
sV\u804a\u5929
p375
I397
sV\u5929\u874e
p376
I473
sV\u5fc3\u8df3
p377
I803
sV\u6211\u6765
p378
I186
sV\u56f4\u89c2
p379
I770
sV\u8c01
I141
sV\u5207\u7cd5
p380
I742
sV\u4e0a\u6d77
p381
I516
sV\u91cc\u9762
p382
I696
sV\u628a
I108
sV\u4e0d
I11
sVit
p383
I291
sV\u65f6\u5dee
p384
I655
sV\u6069\u6069
p385
I312
sV\u65f6\u95f4
p386
I188
sV\u90fd\u662f
p387
I156
sV\u5dee
I796
sVid
p388
I447
sVing
p389
I404
sV\u751f\u6d3b
p390
I283
sV)
I64
sV\u4e0d\u884c
p391
I199
sV\u8d2b
I873
sV\u4e2d
I200
sV\u6682\u65f6
p392
I560
sV\u90ae
I239
sV\u5c31
I14
sV\u591a\u597d
p393
I774
sV\u4eb2
I22
sV\u653b
I429
sV\u600e\u4e48\u529e
p394
I485
sV\u6ef4
I263
sV\u53ea\u80fd
p395
I465
sV\u6b63\u5e38
p396
I834
sV\u8c22\u8c22
p397
I42
sV\u6b4c\u672a\u592e
p398
I833
sV\u8bf7\u95ee
p399
I585
sV\u4f60\u53ef\u4ee5
p400
I730
sV\u634f
I428
sV\u98ce
I885
sV\u6bd4
I169
sV\u7cd6
I856
sV\u53d1\u70ed
p401
I749
sV\u8fdc
I403
sV\u65e0
I386
sV\u9c7c\u9c7c
p402
I886
sV\u672c\u6765
p403
I495
sV\u8d77\u7801
p404
I874
sV\u5f88\u597d
p405
I258
sV\u6069
I44
sV\u82f1\u8bed
p406
I866
sV\u591a\u5927
p407
I305
sV\u5973
I115
sV\u4e86\u89e3
p408
I406
sV\u7fa1\u6155
p409
I503
sV\u8bf4
I35
sV\u74f6
I847
sV\u770b\u770b
p410
I203
sV10086
p411
I702
sV\u8868\u793a
p412
I581
sV\u4e00
I79
sV\u8981\u6c42
p413
I869
sV\u5185
I326
sV\u8fd9\u4e48
p414
I104
sV\u5b89
I788
sV\u4e8b
I242
sV\u540c
I180
sV\u8fd9
I27
sV\u6253\u9ebb\u5c06
p415
I650
sV\u56de\u590d
p416
I273
sV\u6625\u5929
p417
I559
sV\u4e0d\u597d\u610f\u601d
p418
I599
sV\u591a
I71
sV\u559d
I372
sV\u6211\u4eec
p419
I67
sV\u9644\u8fd1
p420
I510
sV\u5347\u7ea7
p421
I527
sV\u7f8e\u5973
p422
I681
sV\u54a7
I330
sV\u73a9
I212
sV\u6f02\u4eae
p423
I565
sV\u592a
I73
sV\u5c31\u597d
p424
I255
sV\u542c
I153
sV\u7136\u540e
p425
I282
sV\u7231\u4f60
p426
I668
sV\u6b7b\u4e86
p427
I346
sV\u597d\u5403
p428
I778
sV\u5b57\u5e55
p429
I635
sV\u80bf
I149
sV\u540c\u5b66
p430
I414
sV\u592a\u96be
p431
I474
sV\u89e3\u7b54
p432
I400
sV\u54c7
I132
sV\u522b\u7684
p433
I744
sV\u6d6e\u8e81
p434
I347
sV\u545c\u545c
p435
I370
sV\u50cf
I460
sV\u968f\u4fbf
p436
I359
sV\u633a\u597d
p437
I381
sV\u51e0\u53f7
p438
I741
sV\u56db
I624
sV\u515a
I325
sV\u54ea\u5462
p439
I765
sV\u4fe1
I607
sV\u8f66
I876
sV\u4e00\u5468
p440
I597
sV\u53ef\u6068
p441
I753
sV\u5495\u565c\u5495\u565c
p442
I760
sV\u4eba\u6c11
p443
I605
sV\u4e5f\u662f
p444
I101
sV\u4e70
I173
sVt
I220
sV\u95f2
I590
sV\u5bf9
I56
sV\u5bb9\u6613
p445
I638
sV\u6709\u8da3
p446
I829
sV\u9c7c
I218
sV\u4f46\u662f
p447
I408
sV\u53d1\u73b0
p448
I615
sV\u8fd8\u6709
p449
I196
sV\u8fd9\u79cd
p450
I444
sV\u8fd9\u91cc
p451
I289
sV\u4e0b
I95
sV\u548c
I70
sV\u89c9\u5f97
p452
I78
sV\u6807\u51c6
p453
I562
sV\u6709\u6728\u6709
p454
I493
sV\u5417
I18
sV\u561b
I40
sV\u671f\u5f85
p455
I659
sV\u600e\u6837
p456
I551
sV\u62a5\u540d
p457
I260
sV\u5b66\u6211
p458
I787
sV\u8fd8\u5728
p459
I287
sV\u54c8\u54c8\u54c8\u54c8
p460
I182
sV\u5427
I8
sV\u9762\u8bd5
p461
I699
sV\u6ca1\u6709
p462
I37
sV\u6652
I823
sV\u76c6
I674
sV\u722a\u5b50
p463
I433
sV\u627e\u5230
p464
I488
sV\u6233
I647
sV\u82f1\u6587
p465
I865
sV\u5938
I631
sV\u84dd\u989c
p466
I398
sV\u8bf4\u4ec0\u4e48
p467
I872
sV\u4e0a\u4f20
p468
I711
sV\u5012\u9709
p469
I735
sV\u4e0d\u5bf9
p470
I600
sV\u597d\u5440
p471
I779
sV\u4ee5\u524d
p472
I725
sV\u5404\u79cd
p473
I467
sV\u7b49
I130
sV\u4e4b
I159
sV\u4e00\u5b9a\u8981
p474
I453
sV\u81ea\u5df1
p475
I77
sV\u5b8c\u5168
p476
I637
sV\u5e72\u561b
p477
I311
sV\u6253
I145
sV\u4e00\u6b21
p478
I598
sV\u660e\u767d
p479
I822
sV\u5457
I76
sV\u51c6\u5907
p480
I412
sV\u9ad8
I593
sV\u4e00\u79cd
p481
I454
sV\u7761
I110
sV\u5bf9\u554a
p482
I274
sVok
p483
I361
sV\u70ed\u95f9
p484
I845
sV\u96be\u9053
p485
I267
sVo
I61
sV90\u5e74
p486
I704
sV\u6211\u4e5f\u662f
p487
I144
sV\u5df2
I139
sV\u559c\u6b22
p488
I81
sV\u4f60\u770b
p489
I459
sV\u5728\u54ea\u91cc
p490
I304
sV\u51fa
I327
sV\u54fc
I419
sV\u6700
I388
sV\u5b83
I636
sV\u9633\u53f0
p491
I697
sV\u7537\u53cb
p492
I568
sV\u5fd8\u4e86
p493
I645
sV\u5f53\u7136
p494
I549
sV\u4f10
I458
sV\u600e\u4e48\u6837
p495
I339
sV\u5e16
I376
sV\u5bb6\u4eba
p496
I792
sVmark
p497
I448
sV\u5c0f\u5fc3
p498
I794
sV\u5e26
I185
sV\u7761\u89c9
p499
I264
sV\u5b89\u6170
p500
I477
sV\u6ca1\u4e8b
p501
I262
sV\u64ad
I816
sV\u5f88\u559c\u6b22
p502
I799
sV\uff09
I177
sV\u5934
I630
sV\u7740
I88
sV\u4e0d\u60f3
p503
I365
sV\u6c42
I58
sV\u4e24\u4e2a
p504
I521
sV\u62c9
I651
sV\u804a
I136
sV\u6c34
I662
sV\u9ed1
I701
sV\u5b9e\u4e60
p505
I478
sV\u52fe\u642d
p506
I747
sV\u4e5f\u6709
p507
I295
sV\u4e56
I324
sV\u5f97\u745f
p508
I801
sV\u505a
I123
sV\u84dd
I357
sV\u4f60\u597d
p509
I208
sV\u5982\u6b64
p510
I783
sV\u4f60
I5
sV\u53e3
I750
sV\u5462
I13
sV\u4e0d\u4e0a
p511
I714
sV\u5475\u5475
p512
I66
sV\u5feb
I117
sV\u4e5f\u8bb8
p513
I723
sV\u662f\u4e0d\u662f
p514
I314
sV\u4e4b\u524d
p515
I722
sV\u9ef1
I887
sV\u5bbf\u820d
p516
I793
sV\u4e00\u8d77
p517
I89
sV\u7ffb
I216
sV\u8fd9\u6837
p518
I120
sV\u627e
I74
sVv
I707
sV\u660e\u663e
p519
I821
sV\u4e86
I3
sV\u6b63\u89e3
p520
I563
sV\u770b
I43
sV\u4e0b\u73ed
p521
I206
sV\u8352\u5e9f
p522
I867
sV\u4e11
I602
sV\u65e5\u8bed
p523
I819
sV\u6492
I166
sV\u6015
I340
sV\u53d8\u6210
p524
I617
sV\u4f60\u59b9
p525
I366
sV\u591f
I628
sV\u529e
I463
sV\u8fd8\u662f
p526
I41
sV\u95ee\u95ee
p527
I589
sV49
p528
I703
sV\u5446
I416
sV5
I360
sV\u503c\u5f97
p529
I736
sV\u7537
I68
sV\u59b9\u5b50
p530
I476
sV\u5c45\u7136
p531
I641
sV\u75bc
I569
sV\u513f
I297
sV\u64e6
I817
sV\u52aa\u529b
p532
I367
sV\u53c8
I72
sV\u652f\u6301
p533
I384
sV\u6807\u9898
p534
I832
sV\u4e0d\u7231
p535
I716
sV\u80af\u5b9a
p536
I148
sV\u4ed6
I46
sV\u4e0b\u53bb
p537
I713
sV\u6211\u5728
p538
I174
sV\u6d6a\u8d39
p539
I665
sV\u6709\u6ca1\u6709
p540
I658
sV\u560e\u560e
p541
I469
sV\u8bd5\u8bd5
p542
I439
sV\u7c73
I572
sV\u8d85\u7ea7
p543
I875
sV\u5357\u4eac
p544
I247
sV\u4ed6\u4eec
p545
I457
sV\u72ee
I497
sV\u4e71
I522
sV\u5feb\u4e50
p546
I550
sVu
I706
sV\u817f
I685
sV\u8d77
I217
sV\u6211\u6709
p547
I808
sV\u4e0d\u4f4f
p548
I517
sV\u997f
I592
sV\u8868\u60c5
p549
I688
s.